 SCARA_Control_System_cgxe

 Timestamp is 6585dd88 (Fri Dec 22 21:03:36 2023)

 Preferred load address is 0000000180000000

 Start         Length     Name                   Class
 0001:00000000 0002ddf0H .text$mn                CODE
 0001:0002ddf0 00000040H .text$mn$00             CODE
 0001:0002de30 0000073eH .text$x                 CODE
 0002:00000000 00000498H .idata$5                DATA
 0002:00000498 00000038H .00cfg                  DATA
 0002:000004d0 00000008H .CRT$XCA                DATA
 0002:000004d8 00000008H .CRT$XCZ                DATA
 0002:000004e0 00000008H .CRT$XIA                DATA
 0002:000004e8 00000008H .CRT$XIZ                DATA
 0002:000004f0 00000008H .CRT$XPA                DATA
 0002:000004f8 00000008H .CRT$XPZ                DATA
 0002:00000500 00000008H .CRT$XTA                DATA
 0002:00000508 00000008H .CRT$XTZ                DATA
 0002:00000510 00000000H .gehcont$y              DATA
 0002:00000510 00000000H .gfids$y                DATA
 0002:00000510 00000570H .rdata                  DATA
 0002:00000a80 00000080H .rdata$CastGuardVftablesA DATA
 0002:00000b00 00000080H .rdata$CastGuardVftablesC DATA
 0002:00000b80 0000026cH .rdata$r                DATA
 0002:00000dec 000002bcH .rdata$voltmd           DATA
 0002:000010a8 000002c8H .rdata$zzzdbg           DATA
 0002:00001370 00000008H .rtc$IAA                DATA
 0002:00001378 00000008H .rtc$IZZ                DATA
 0002:00001380 00000008H .rtc$TAA                DATA
 0002:00001388 00000008H .rtc$TZZ                DATA
 0002:00001390 00001ed8H .xdata                  DATA
 0002:00003268 000000f8H .xdata$x                DATA
 0002:00003360 000002c8H .edata                  DATA
 0002:00003628 00000140H .idata$2                DATA
 0002:00003768 00000018H .idata$3                DATA
 0002:00003780 00000498H .idata$4                DATA
 0002:00003c18 00000e8aH .idata$6                DATA
 0003:00000000 00007ad8H .data                   DATA
 0003:00007ad8 00000080H .data$r                 DATA
 0003:00007b58 00000058H .data$rs                DATA
 0003:00007bb0 00000650H .bss                    DATA
 0004:00000000 000020b8H .pdata                  DATA

  Address         Publics by Value              Rva+Base               Lib:Object

 0000:00000000       __AbsoluteZero             0000000000000000     <absolute>
 0000:00000000       ___safe_se_handler_count   0000000000000000     <absolute>
 0000:00000000       ___safe_se_handler_table   0000000000000000     <absolute>
 0000:00000000       __arm64x_extra_rfe_table   0000000000000000     <absolute>
 0000:00000000       __arm64x_extra_rfe_table_size 0000000000000000     <absolute>
 0000:00000000       __arm64x_native_entrypoint 0000000000000000     <absolute>
 0000:00000000       __arm64x_redirection_metadata 0000000000000000     <absolute>
 0000:00000000       __arm64x_redirection_metadata_count 0000000000000000     <absolute>
 0000:00000000       __dynamic_value_reloc_table 0000000000000000     <absolute>
 0000:00000000       __enclave_config           0000000000000000     <absolute>
 0000:00000000       __guard_check_icall_a64n_fptr 0000000000000000     <absolute>
 0000:00000000       __guard_eh_cont_count      0000000000000000     <absolute>
 0000:00000000       __guard_eh_cont_table      0000000000000000     <absolute>
 0000:00000000       __guard_fids_count         0000000000000000     <absolute>
 0000:00000000       __guard_fids_table         0000000000000000     <absolute>
 0000:00000000       __guard_iat_count          0000000000000000     <absolute>
 0000:00000000       __guard_iat_table          0000000000000000     <absolute>
 0000:00000000       __guard_longjmp_count      0000000000000000     <absolute>
 0000:00000000       __guard_longjmp_table      0000000000000000     <absolute>
 0000:00000000       __hybrid_auxiliary_delayload_iat 0000000000000000     <absolute>
 0000:00000000       __hybrid_auxiliary_delayload_iat_copy 0000000000000000     <absolute>
 0000:00000000       __hybrid_auxiliary_iat     0000000000000000     <absolute>
 0000:00000000       __hybrid_auxiliary_iat_copy 0000000000000000     <absolute>
 0000:00000000       __hybrid_code_map          0000000000000000     <absolute>
 0000:00000000       __hybrid_code_map_count    0000000000000000     <absolute>
 0000:00000000       __hybrid_image_info_bitfield 0000000000000000     <absolute>
 0000:00000000       __x64_code_ranges_to_entry_points 0000000000000000     <absolute>
 0000:00000000       __x64_code_ranges_to_entry_points_count 0000000000000000     <absolute>
 0000:00000100       __guard_flags              0000000000000100     <absolute>
 0000:00000000       __ImageBase                0000000180000000     <linker-defined>
 0001:00000000       mexfilerequiredapiversion  0000000180001000 f   c_mexapi_version.obj
 0001:00000030       cgxe_SCARA_Control_System_method_dispatcher 0000000180001030 f   SCARA_Control_System_cgxe.obj
 0001:000000d0       method_dispatcher_nM5NMYJUCkhQa81HtyaWRC 00000001800010d0 f   m_nM5NMYJUCkhQa81HtyaWRC.obj
 0001:0000def0       cgxe_nM5NMYJUCkhQa81HtyaWRC_BuildInfoUpdate 000000018000eef0 f   m_nM5NMYJUCkhQa81HtyaWRC.obj
 0001:0000e260       cgxe_nM5NMYJUCkhQa81HtyaWRC_fallback_info 000000018000f260 f   m_nM5NMYJUCkhQa81HtyaWRC.obj
 0001:0000e300       mexFunction                000000018000f300 f   SCARA_Control_System_cgxe_registry.obj
 0001:00010170       _ssSetInputPortDirectFeedThroughFcn 0000000180011170 f   SCARA_Control_System_cgxe_registry.obj
 0001:000102e0       _ssSetRWorkValueFcn        00000001800112e0 f   SCARA_Control_System_cgxe_registry.obj
 0001:00010360       _ssGetRWorkValueFcn        0000000180011360 f   SCARA_Control_System_cgxe_registry.obj
 0001:000103d0       _ssSetIWorkValueFcn        00000001800113d0 f   SCARA_Control_System_cgxe_registry.obj
 0001:00010450       _ssGetIWorkValueFcn        0000000180011450 f   SCARA_Control_System_cgxe_registry.obj
 0001:000104c0       _ssSetPWorkValueFcn        00000001800114c0 f   SCARA_Control_System_cgxe_registry.obj
 0001:00010540       _ssGetPWorkValueFcn        0000000180011540 f   SCARA_Control_System_cgxe_registry.obj
 0001:000105b0       _ssGetInputPortSignalFcn   00000001800115b0 f   SCARA_Control_System_cgxe_registry.obj
 0001:00010940       _ssGetInputPortBufferDstPortFcn 0000000180011940 f   SCARA_Control_System_cgxe_registry.obj
 0001:000109c0       _ssGetInputPortSignalPtrsFcn 00000001800119c0 f   SCARA_Control_System_cgxe_registry.obj
 0001:00010d50       ssGetParameterTuningCompliance 0000000180011d50 f   SCARA_Control_System_cgxe_registry.obj
 0001:00010dc0       _ssReadInputStringFcn      0000000180011dc0 f   SCARA_Control_System_cgxe_registry.obj
 0001:00010e30       ssGetDTypeIdFromMxArray    0000000180011e30 f   SCARA_Control_System_cgxe_registry.obj
 0001:00010f50       ssWriteRTWMx2dMatParam     0000000180011f50 f   SCARA_Control_System_cgxe_registry.obj
 0001:00010fe0       ssWriteRTWMxVectParam      0000000180011fe0 f   SCARA_Control_System_cgxe_registry.obj
 0001:00011060       ssWriteRTWParameters       0000000180012060 f   SCARA_Control_System_cgxe_registry.obj
 0001:00011620       ssWriteRTWParamSettings    0000000180012620 f   SCARA_Control_System_cgxe_registry.obj
 0001:00011d10       ssWriteRTWStr              0000000180012d10 f   SCARA_Control_System_cgxe_registry.obj
 0001:00011d70       ssWriteRTWWorkVect         0000000180012d70 f   SCARA_Control_System_cgxe_registry.obj
 0001:000122d0       ssWarning                  00000001800132d0 f   SCARA_Control_System_cgxe_registry.obj
 0001:000123c0       ssGetRootSS                00000001800133c0 f   SCARA_Control_System_cgxe_registry.obj
 0001:00012480       ssGetParentSS              0000000180013480 f   SCARA_Control_System_cgxe_registry.obj
 0001:00012540       ssWriteRTWNameValuePair    0000000180013540 f   SCARA_Control_System_cgxe_registry.obj
 0001:00012a40       _ssSetInputPortMatrixDimensions 0000000180013a40 f   SCARA_Control_System_cgxe_registry.obj
 0001:00012b90       _ssSetOutputPortMatrixDimensions 0000000180013b90 f   SCARA_Control_System_cgxe_registry.obj
 0001:00012ce0       _ssSetInputPortVectorDimension 0000000180013ce0 f   SCARA_Control_System_cgxe_registry.obj
 0001:00012d90       _ssSetOutputPortVectorDimension 0000000180013d90 f   SCARA_Control_System_cgxe_registry.obj
 0001:00012e40       ssIsRunTimeParamTunable    0000000180013e40 f   SCARA_Control_System_cgxe_registry.obj
 0001:00012eb0       ssGetSFuncBlockHandle      0000000180013eb0 f   SCARA_Control_System_cgxe_registry.obj
 0001:00012f20       _ssGetCallSystemNumFcnCallDestinations 0000000180013f20 f   SCARA_Control_System_cgxe_registry.obj
 0001:00012f90       _ssGetCurrentInputPortWidth 0000000180013f90 f   SCARA_Control_System_cgxe_registry.obj
 0001:000130d0       _ssGetCurrentOutputPortWidth 00000001800140d0 f   SCARA_Control_System_cgxe_registry.obj
 0001:00013210       ssGetIsZeroCrossControlDisabled 0000000180014210 f   SCARA_Control_System_cgxe_registry.obj
 0001:00013280       ssSetIsInputPortUsedForContZcSignal 0000000180014280 f   SCARA_Control_System_cgxe_registry.obj
 0001:000132f0       ssSetZcSignalIsZcElementDisc 00000001800142f0 f   SCARA_Control_System_cgxe_registry.obj
 0001:000133a0       ssSetZcSignalName          00000001800143a0 f   SCARA_Control_System_cgxe_registry.obj
 0001:00013410       ssSetZcSignalWidth         0000000180014410 f   SCARA_Control_System_cgxe_registry.obj
 0001:00013480       ssSetZcSignalZcEventType   0000000180014480 f   SCARA_Control_System_cgxe_registry.obj
 0001:000134f0       ssSetZcSignalType          00000001800144f0 f   SCARA_Control_System_cgxe_registry.obj
 0001:00013560       ssSetZcSignalZcTol         0000000180014560 f   SCARA_Control_System_cgxe_registry.obj
 0001:000135d0       ssSetZcSignalNeedsEventNotification 00000001800145d0 f   SCARA_Control_System_cgxe_registry.obj
 0001:00013640       ssCreateAndAddZcSignalInfo 0000000180014640 f   SCARA_Control_System_cgxe_registry.obj
 0001:000136b0       ssCloneAndAddZcSignalInfo  00000001800146b0 f   SCARA_Control_System_cgxe_registry.obj
 0001:00013720       ssGetNumZcSignals          0000000180014720 f   SCARA_Control_System_cgxe_registry.obj
 0001:00013790       ssGetZcSignalVector        0000000180014790 f   SCARA_Control_System_cgxe_registry.obj
 0001:00013800       ssGetZcSignalName          0000000180014800 f   SCARA_Control_System_cgxe_registry.obj
 0001:00013870       ssGetZcSignalWidth         0000000180014870 f   SCARA_Control_System_cgxe_registry.obj
 0001:000138e0       ssGetZcSignalZcEventType   00000001800148e0 f   SCARA_Control_System_cgxe_registry.obj
 0001:00013950       ssGetZcSignalZcEvents      0000000180014950 f   SCARA_Control_System_cgxe_registry.obj
 0001:000139c0       ssGetZcSignalType          00000001800149c0 f   SCARA_Control_System_cgxe_registry.obj
 0001:00013a30       ssGetZcSignalZcTol         0000000180014a30 f   SCARA_Control_System_cgxe_registry.obj
 0001:00013ab0       ssGetZcSignalNeedsEventNotification 0000000180014ab0 f   SCARA_Control_System_cgxe_registry.obj
 0001:00013b20       ssGetZcSignalIsZcElementDisc 0000000180014b20 f   SCARA_Control_System_cgxe_registry.obj
 0001:00013bc0       ssGetIsInputPortElementContinuous 0000000180014bc0 f   SCARA_Control_System_cgxe_registry.obj
 0001:00013c60       _ssGetAbsTol               0000000180014c60 f   SCARA_Control_System_cgxe_registry.obj
 0001:00013cd0       _ssSetStateAbsTol          0000000180014cd0 f   SCARA_Control_System_cgxe_registry.obj
 0001:00013db0       _ssSetInputPortReusableFcn 0000000180014db0 f   SCARA_Control_System_cgxe_registry.obj
 0001:00013eb0       _ssSetOutputPortReusableFcn 0000000180014eb0 f   SCARA_Control_System_cgxe_registry.obj
 0001:00013fb0       _ssSetSymbolicDimsSupport  0000000180014fb0 f   SCARA_Control_System_cgxe_registry.obj
 0001:00014020       _ssRegisterSymbolicDimsExpr 0000000180015020 f   SCARA_Control_System_cgxe_registry.obj
 0001:000140a0       _ssRegisterSymbolicDimsMATLABExpr 00000001800150a0 f   SCARA_Control_System_cgxe_registry.obj
 0001:00014130       _ssRegisterSymbolicDims    0000000180015130 f   SCARA_Control_System_cgxe_registry.obj
 0001:000141d0       _ssRegisterSymbolicDimsString 00000001800151d0 f   SCARA_Control_System_cgxe_registry.obj
 0001:00014250       _ssRegisterSymbolicDimsIntValue 0000000180015250 f   SCARA_Control_System_cgxe_registry.obj
 0001:000142c0       _ssRegisterSymbolicEqualRelation 00000001800152c0 f   SCARA_Control_System_cgxe_registry.obj
 0001:00014330       _ssRegisterSymbolicEqualValue 0000000180015330 f   SCARA_Control_System_cgxe_registry.obj
 0001:000143a0       _ssAmendLeadingSymbolicDims 00000001800153a0 f   SCARA_Control_System_cgxe_registry.obj
 0001:00014420       _ssAmendTrailingSymbolicDims 0000000180015420 f   SCARA_Control_System_cgxe_registry.obj
 0001:000144a0       _ssRegisterSymbolicDimsPlus 00000001800154a0 f   SCARA_Control_System_cgxe_registry.obj
 0001:00014520       _ssRegisterSymbolicDimsMinus 0000000180015520 f   SCARA_Control_System_cgxe_registry.obj
 0001:000145a0       _ssRegisterSymbolicDimsMultiply 00000001800155a0 f   SCARA_Control_System_cgxe_registry.obj
 0001:00014620       _ssRegisterSymbolicDimsDivide 0000000180015620 f   SCARA_Control_System_cgxe_registry.obj
 0001:000146a0       _ssGetNumSymbolicDims      00000001800156a0 f   SCARA_Control_System_cgxe_registry.obj
 0001:00014710       _ssGetSymbolicDim          0000000180015710 f   SCARA_Control_System_cgxe_registry.obj
 0001:00014790       _ssSetInputPortSymbolicDimsId 0000000180015790 f   SCARA_Control_System_cgxe_registry.obj
 0001:00014800       _ssGetCompInputPortSymbolicDimsId 0000000180015800 f   SCARA_Control_System_cgxe_registry.obj
 0001:00014870       _ssSetCompInputPortSymbolicDimsId 0000000180015870 f   SCARA_Control_System_cgxe_registry.obj
 0001:000148e0       _ssSetOutputPortSymbolicDimsId 00000001800158e0 f   SCARA_Control_System_cgxe_registry.obj
 0001:00014950       _ssGetCompOutputPortSymbolicDimsId 0000000180015950 f   SCARA_Control_System_cgxe_registry.obj
 0001:000149c0       _ssSetCompOutputPortSymbolicDimsId 00000001800159c0 f   SCARA_Control_System_cgxe_registry.obj
 0001:00014a30       _ssGetDWorkSymbolicDimsId  0000000180015a30 f   SCARA_Control_System_cgxe_registry.obj
 0001:00014aa0       _ssSetDWorkSymbolicDimsId  0000000180015aa0 f   SCARA_Control_System_cgxe_registry.obj
 0001:00014b10       _ssGetCompDWorkSymbolicDimsId 0000000180015b10 f   SCARA_Control_System_cgxe_registry.obj
 0001:00014b80       _ssSetCompDWorkSymbolicDimsId 0000000180015b80 f   SCARA_Control_System_cgxe_registry.obj
 0001:00014bf0       _ssCreateSLCGStringBuffer  0000000180015bf0 f   SCARA_Control_System_cgxe_registry.obj
 0001:00014c60       _ssAddToSLCGStringBuffer   0000000180015c60 f   SCARA_Control_System_cgxe_registry.obj
 0001:00014cd0       _ssGetPointerContainedData 0000000180015cd0 f   SCARA_Control_System_cgxe_registry.obj
 0001:00014d60       _ssGetPointerContainedDataWidth 0000000180015d60 f   SCARA_Control_System_cgxe_registry.obj
 0001:00014df0       _ssRegisterDynamicArrayDataTypeFcn 0000000180015df0 f   SCARA_Control_System_cgxe_registry.obj
 0001:00014e90       _ssGetDynamicArrayContainedDataCurrentWidthFcn 0000000180015e90 f   SCARA_Control_System_cgxe_registry.obj
 0001:00014f60       _ssGetDynamicArrayContainedDataFcn 0000000180015f60 f   SCARA_Control_System_cgxe_registry.obj
 0001:00015030       _ssGetInputPortDynamicArrayDataFcn 0000000180016030 f   SCARA_Control_System_cgxe_registry.obj
 0001:000150f0       _ssGetOutputPortDynamicArrayDataFcn 00000001800160f0 f   SCARA_Control_System_cgxe_registry.obj
 0001:000151b0       _ssGetInputPortDynamicArrayContainedDataFcn 00000001800161b0 f   SCARA_Control_System_cgxe_registry.obj
 0001:00015270       _ssGetOutputPortDynamicArrayContainedDataFcn 0000000180016270 f   SCARA_Control_System_cgxe_registry.obj
 0001:00015330       _ssGetDynamicArrayDWorkContainedDataFcn 0000000180016330 f   SCARA_Control_System_cgxe_registry.obj
 0001:00016e20       __local_stdio_printf_options 0000000180017e20 f i SCARA_Control_System_cgxe_registry.obj
 0001:00016e30       _vsnprintf_l               0000000180017e30 f i SCARA_Control_System_cgxe_registry.obj
 0001:00016eb0       _vsprintf_l                0000000180017eb0 f i SCARA_Control_System_cgxe_registry.obj
 0001:00016f00       sprintf                    0000000180017f00 f i SCARA_Control_System_cgxe_registry.obj
 0001:000178f0       ccdFirstDirDefault         00000001800188f0 f   ccd_ccd.obj
 0001:00017930       __ccdSupport               0000000180018930 f   ccd_ccd.obj
 0001:00017a10       ccdGJKIntersect            0000000180018a10 f   ccd_ccd.obj
 0001:00017aa0       __ccdGJK                   0000000180018aa0 f   ccd_ccd.obj
 0001:00017c60       ccdGJKSeparate             0000000180018c60 f   ccd_ccd.obj
 0001:00017d00       ccdGJKPenetration          0000000180018d00 f   ccd_ccd.obj
 0001:0001c210       ccdMPRIntersect            000000018001d210 f   ccd_mpr.obj
 0001:0001c2e0       ccdMPRPenetration          000000018001d2e0 f   ccd_mpr.obj
 0001:0001dde0       ccdPtInit                  000000018001ede0 f   ccd_polytope.obj
 0001:0001de50       ccdPtDestroy               000000018001ee50 f   ccd_polytope.obj
 0001:0001dfa0       ccdPtAddVertex             000000018001efa0 f   ccd_polytope.obj
 0001:0001e070       ccdPtAddEdge               000000018001f070 f   ccd_polytope.obj
 0001:0001e230       ccdPtAddFace               000000018001f230 f   ccd_polytope.obj
 0001:0001e710       ccdPtRecomputeDistances    000000018001f710 f   ccd_polytope.obj
 0001:0001ea00       ccdPtNearest               000000018001fa00 f   ccd_polytope.obj
 0001:0001ea40       ccdPtDumpSVT               000000018001fa40 f   ccd_polytope.obj
 0001:0001eaa0       ccdPtDumpSVT2              000000018001faa0 f   ccd_polytope.obj
 0001:0001ef90       _vfprintf_l                000000018001ff90 f i ccd_polytope.obj
 0001:0001efe0       fprintf                    000000018001ffe0 f i ccd_polytope.obj
 0001:0001f520       ccdVec3PointSegmentDist2   0000000180020520 f   ccd_vec3.obj
 0001:0001f560       ccdVec3PointTriDist2       0000000180020560 f   ccd_vec3.obj
 0001:00020490       ??RCollisionGeometryDeleter@shared_robotics@@QEAAXPEAVCollisionGeometry@1@@Z 0000000180021490 f   collisioncodegen_CollisionGeometry.obj
 0001:000204e0       ??1CollisionGeometry@shared_robotics@@UEAA@XZ 00000001800214e0 f   collisioncodegen_CollisionGeometry.obj
 0001:00020540       ?support@CollisionGeometry@shared_robotics@@QEBAXPEBU_ccd_vec3_t@@PEAU3@@Z 0000000180021540 f   collisioncodegen_CollisionGeometry.obj
 0001:00021090       ?constructConnectionList@CollisionGeometry@shared_robotics@@IEAAXXZ 0000000180022090 f   collisioncodegen_CollisionGeometry.obj
 0001:00021610       ??$?0$$V@?$_Compressed_pair@V?$allocator@N@std@@V?$_Vector_val@U?$_Simple_types@N@std@@@2@$00@std@@QEAA@U_Zero_then_variadic_args_t@1@@Z 0000000180022610 f i collisioncodegen_CollisionGeometry.obj
 0001:00021640       ??$?0$$V@?$_Compressed_pair@V?$allocator@_K@std@@V?$_Vector_val@U?$_Simple_types@_K@std@@@2@$00@std@@QEAA@U_Zero_then_variadic_args_t@1@@Z 0000000180022640 f i collisioncodegen_CollisionGeometry.obj
 0001:00021670       ??$?0AEAPEA_KAEAPEA_K$0A@@?$pair@PEA_KPEA_K@std@@QEAA@AEAPEA_K0@Z 0000000180022670 f i collisioncodegen_CollisionGeometry.obj
 0001:000216c0       ??$?0V?$allocator@_K@std@@PEA_KPEA_KPEA_K@?$_Compressed_pair@V?$allocator@_K@std@@V?$_Vector_val@U?$_Simple_types@_K@std@@@2@$00@std@@QEAA@U_One_then_variadic_args_t@1@$$QEAV?$allocator@_K@1@$$QEAPEA_K22@Z 00000001800226c0 f i collisioncodegen_CollisionGeometry.obj
 0001:00021730       ??$?6U?$char_traits@D@std@@@std@@YAAEAV?$basic_ostream@DU?$char_traits@D@std@@@0@AEAV10@PEBD@Z 0000000180022730 f i collisioncodegen_CollisionGeometry.obj
 0001:00021ac0       ??$?RAEANAEAN@?$less@X@std@@QEBA_NAEAN0@Z 0000000180022ac0 f i collisioncodegen_CollisionGeometry.obj
 0001:00021b00       ??$?RAEA_KAEA_K@?$equal_to@X@std@@QEBA_NAEA_K0@Z 0000000180022b00 f i collisioncodegen_CollisionGeometry.obj
 0001:00021b40       ??$?RAEA_KAEA_K@?$less@X@std@@QEBA_NAEA_K0@Z 0000000180022b40 f i collisioncodegen_CollisionGeometry.obj
 0001:00021b80       ??$_Adl_verify_range@V?$_Vector_iterator@V?$_Vector_val@U?$_Simple_types@N@std@@@std@@@std@@V12@@std@@YAXAEBV?$_Vector_iterator@V?$_Vector_val@U?$_Simple_types@N@std@@@std@@@0@0@Z 0000000180022b80 f i collisioncodegen_CollisionGeometry.obj
 0001:00021b90       ??$_Adl_verify_range@V?$_Vector_iterator@V?$_Vector_val@U?$_Simple_types@_K@std@@@std@@@std@@V12@@std@@YAXAEBV?$_Vector_iterator@V?$_Vector_val@U?$_Simple_types@_K@std@@@std@@@0@0@Z 0000000180022b90 f i collisioncodegen_CollisionGeometry.obj
 0001:00021ba0       ??$_Allocate@$0BA@U_Default_allocate_traits@std@@$0A@@std@@YAPEAX_K@Z 0000000180022ba0 f i collisioncodegen_CollisionGeometry.obj
 0001:00021be0       ??$_Allocate_manually_vector_aligned@U_Default_allocate_traits@std@@@std@@YAPEAX_K@Z 0000000180022be0 f i collisioncodegen_CollisionGeometry.obj
 0001:00021c70       ??$_Construct_in_place@NN@std@@YAXAEAN$$QEAN@Z 0000000180022c70 f i collisioncodegen_CollisionGeometry.obj
 0001:00021cc0       ??$_Construct_in_place@_KAEB_K@std@@YAXAEA_KAEB_K@Z 0000000180022cc0 f i collisioncodegen_CollisionGeometry.obj
 0001:00021d10       ??$_Copy_backward_memmove@PEA_KPEA_K@std@@YAPEA_KPEA_K00@Z 0000000180022d10 f i collisioncodegen_CollisionGeometry.obj
 0001:00021dc0       ??$_Copy_memmove@PEANPEAN@std@@YAPEANPEAN00@Z 0000000180022dc0 f i collisioncodegen_CollisionGeometry.obj
 0001:00021e60       ??$_Copy_memmove@PEA_KPEA_K@std@@YAPEA_KPEA_K00@Z 0000000180022e60 f i collisioncodegen_CollisionGeometry.obj
 0001:00021f00       ??$_Deallocate@$0BA@$0A@@std@@YAXPEAX_K@Z 0000000180022f00 f i collisioncodegen_CollisionGeometry.obj
 0001:00021f40       ??$_Destroy_range@V?$allocator@N@std@@@std@@YAXPEANQEANAEAV?$allocator@N@0@@Z 0000000180022f40 f i collisioncodegen_CollisionGeometry.obj
 0001:00021f50       ??$_Destroy_range@V?$allocator@U_ccd_vec3_t@@@std@@@std@@YAXPEAU_ccd_vec3_t@@QEAU1@AEAV?$allocator@U_ccd_vec3_t@@@0@@Z 0000000180022f50 f i collisioncodegen_CollisionGeometry.obj
 0001:00021f60       ??$_Destroy_range@V?$allocator@U_idx_vec3_t@shared_robotics@@@std@@@std@@YAXPEAU_idx_vec3_t@shared_robotics@@QEAU12@AEAV?$allocator@U_idx_vec3_t@shared_robotics@@@0@@Z 0000000180022f60 f i collisioncodegen_CollisionGeometry.obj
 0001:00021f70       ??$_Destroy_range@V?$allocator@V?$vector@_KV?$allocator@_K@std@@@std@@@std@@@std@@YAXPEAV?$vector@_KV?$allocator@_K@std@@@0@QEAV10@AEAV?$allocator@V?$vector@_KV?$allocator@_K@std@@@std@@@0@@Z 0000000180022f70 f i collisioncodegen_CollisionGeometry.obj
 0001:00021fc0       ??$_Destroy_range@V?$allocator@_K@std@@@std@@YAXPEA_KQEA_KAEAV?$allocator@_K@0@@Z 0000000180022fc0 f i collisioncodegen_CollisionGeometry.obj
 0001:00021fd0       ??$_Emplace_back@$$V@?$_Uninitialized_backout_al@V?$allocator@V?$vector@_KV?$allocator@_K@std@@@std@@@std@@@std@@QEAAXXZ 0000000180022fd0 f i collisioncodegen_CollisionGeometry.obj
 0001:00022020       ??$_Emplace_back@$$V@?$_Uninitialized_backout_al@V?$allocator@_K@std@@@std@@QEAAXXZ 0000000180023020 f i collisioncodegen_CollisionGeometry.obj
 0001:00022070       ??$_Emplace_back@N@?$_Uninitialized_backout_al@V?$allocator@N@std@@@std@@QEAAX$$QEAN@Z 0000000180023070 f i collisioncodegen_CollisionGeometry.obj
 0001:000220d0       ??$_Emplace_back@V?$vector@_KV?$allocator@_K@std@@@std@@@?$_Uninitialized_backout_al@V?$allocator@V?$vector@_KV?$allocator@_K@std@@@std@@@std@@@std@@QEAAX$$QEAV?$vector@_KV?$allocator@_K@std@@@1@@Z 00000001800230d0 f i collisioncodegen_CollisionGeometry.obj
 0001:00022130       ??$_Emplace_back@_K@?$_Uninitialized_backout_al@V?$allocator@_K@std@@@std@@QEAAX$$QEA_K@Z 0000000180023130 f i collisioncodegen_CollisionGeometry.obj
 0001:00022190       ??$_Emplace_back_with_unused_capacity@AEB_K@?$vector@_KV?$allocator@_K@std@@@std@@AEAAAEA_KAEB_K@Z 0000000180023190 f i collisioncodegen_CollisionGeometry.obj
 0001:00022220       ??$_Emplace_back_with_unused_capacity@N@?$vector@NV?$allocator@N@std@@@std@@AEAAAEAN$$QEAN@Z 0000000180023220 f i collisioncodegen_CollisionGeometry.obj
 0001:000222b0       ??$_Emplace_one_at_back@AEB_K@?$vector@_KV?$allocator@_K@std@@@std@@AEAAAEA_KAEB_K@Z 00000001800232b0 f i collisioncodegen_CollisionGeometry.obj
 0001:00022330       ??$_Emplace_one_at_back@N@?$vector@NV?$allocator@N@std@@@std@@AEAAAEAN$$QEAN@Z 0000000180023330 f i collisioncodegen_CollisionGeometry.obj
 0001:000223b0       ??$_Emplace_reallocate@AEB_K@?$vector@_KV?$allocator@_K@std@@@std@@AEAAPEA_KQEA_KAEB_K@Z 00000001800233b0 f i collisioncodegen_CollisionGeometry.obj
 0001:000225c0       ??$_Emplace_reallocate@N@?$vector@NV?$allocator@N@std@@@std@@AEAAPEANQEAN$$QEAN@Z 00000001800235c0 f i collisioncodegen_CollisionGeometry.obj
 0001:000227d0       ??$_Get_size_of_n@$07@std@@YA_K_K@Z 00000001800237d0 f i collisioncodegen_CollisionGeometry.obj
 0001:00022820       ??$_Get_size_of_n@$0BI@@std@@YA_K_K@Z 0000000180023820 f i collisioncodegen_CollisionGeometry.obj
 0001:00022860       ??$_Get_unwrapped@AEAV?$_Vector_iterator@V?$_Vector_val@U?$_Simple_types@N@std@@@std@@@std@@@std@@YA?A_TAEAV?$_Vector_iterator@V?$_Vector_val@U?$_Simple_types@N@std@@@std@@@0@@Z 0000000180023860 f i collisioncodegen_CollisionGeometry.obj
 0001:00022880       ??$_Get_unwrapped@AEAV?$_Vector_iterator@V?$_Vector_val@U?$_Simple_types@_K@std@@@std@@@std@@@std@@YA?A_TAEAV?$_Vector_iterator@V?$_Vector_val@U?$_Simple_types@_K@std@@@std@@@0@@Z 0000000180023880 f i collisioncodegen_CollisionGeometry.obj
 0001:000228a0       ??$_Get_unwrapped@AEBQEAN@std@@YA?A_TAEBQEAN@Z 00000001800238a0 f i collisioncodegen_CollisionGeometry.obj
 0001:000228b0       ??$_Get_unwrapped@AEBQEAV?$vector@_KV?$allocator@_K@std@@@std@@@std@@YA?A_TAEBQEAV?$vector@_KV?$allocator@_K@std@@@0@@Z 00000001800238b0 f i collisioncodegen_CollisionGeometry.obj
 0001:000228c0       ??$_Get_unwrapped@AEBQEA_K@std@@YA?A_TAEBQEA_K@Z 00000001800238c0 f i collisioncodegen_CollisionGeometry.obj
 0001:000228d0       ??$_Get_unwrapped@AEBV?$_Vector_iterator@V?$_Vector_val@U?$_Simple_types@_K@std@@@std@@@std@@@std@@YA?A_TAEBV?$_Vector_iterator@V?$_Vector_val@U?$_Simple_types@_K@std@@@std@@@0@@Z 00000001800238d0 f i collisioncodegen_CollisionGeometry.obj
 0001:000228f0       ??$_Guess_median_unchecked@PEA_KU?$less@X@std@@@std@@YAXPEA_K00U?$less@X@0@@Z 00000001800238f0 f i collisioncodegen_CollisionGeometry.obj
 0001:00022a50       ??$_Insertion_sort_unchecked@PEA_KU?$less@X@std@@@std@@YAPEA_KQEA_K0U?$less@X@0@@Z 0000000180023a50 f i collisioncodegen_CollisionGeometry.obj
 0001:00022b90       ??$_Make_heap_unchecked@PEA_KU?$less@X@std@@@std@@YAXPEA_K0U?$less@X@0@@Z 0000000180023b90 f i collisioncodegen_CollisionGeometry.obj
 0001:00022c30       ??$_Max_element_unchecked@PEANU?$less@X@std@@@std@@YAPEANPEAN0U?$less@X@0@@Z 0000000180023c30 f i collisioncodegen_CollisionGeometry.obj
 0001:00022cb0       ??$_Med3_unchecked@PEA_KU?$less@X@std@@@std@@YAXPEA_K00U?$less@X@0@@Z 0000000180023cb0 f i collisioncodegen_CollisionGeometry.obj
 0001:00022d50       ??$_Move_backward_unchecked@PEA_KPEA_K@std@@YAPEA_KPEA_K00@Z 0000000180023d50 f i collisioncodegen_CollisionGeometry.obj
 0001:00022dd0       ??$_Move_unchecked@PEA_KPEA_K@std@@YAPEA_KPEA_K00@Z 0000000180023dd0 f i collisioncodegen_CollisionGeometry.obj
 0001:00022e50       ??$_Next_iter@PEA_K@std@@YAPEA_KPEA_K@Z 0000000180023e50 f i collisioncodegen_CollisionGeometry.obj
 0001:00022e70       ??$_Partition_by_median_guess_unchecked@PEA_KU?$less@X@std@@@std@@YA?AU?$pair@PEA_KPEA_K@0@PEA_K0U?$less@X@0@@Z 0000000180023e70 f i collisioncodegen_CollisionGeometry.obj
 0001:00023220       ??$_Pass_fn@U?$less@X@std@@@std@@YA?A_PAEAU?$less@X@0@@Z 0000000180024220 f i collisioncodegen_CollisionGeometry.obj
 0001:00023240       ??$_Pop_heap_hole_by_index@PEA_K_KU?$less@X@std@@@std@@YAXPEA_K_J1$$QEA_KU?$less@X@0@@Z 0000000180024240 f i collisioncodegen_CollisionGeometry.obj
 0001:000233a0       ??$_Pop_heap_hole_unchecked@PEA_K_KU?$less@X@std@@@std@@YAXPEA_K00$$QEA_KU?$less@X@0@@Z 00000001800243a0 f i collisioncodegen_CollisionGeometry.obj
 0001:00023410       ??$_Pop_heap_unchecked@PEA_KU?$less@X@std@@@std@@YAXPEA_K0U?$less@X@0@@Z 0000000180024410 f i collisioncodegen_CollisionGeometry.obj
 0001:00023490       ??$_Prev_iter@PEA_K@std@@YAPEA_KPEA_K@Z 0000000180024490 f i collisioncodegen_CollisionGeometry.obj
 0001:000234b0       ??$_Push_heap_by_index@PEA_K_KU?$less@X@std@@@std@@YAXPEA_K_J1$$QEA_KU?$less@X@0@@Z 00000001800244b0 f i collisioncodegen_CollisionGeometry.obj
 0001:00023570       ??$_Refancy@PEAN$0A@@std@@YAPEANPEAN@Z 0000000180024570 f i collisioncodegen_CollisionGeometry.obj
 0001:00023580       ??$_Refancy@PEA_K$0A@@std@@YAPEA_KPEA_K@Z 0000000180024580 f i collisioncodegen_CollisionGeometry.obj
 0001:00023590       ??$_Resize@U_Value_init_tag@std@@@?$vector@V?$vector@_KV?$allocator@_K@std@@@std@@V?$allocator@V?$vector@_KV?$allocator@_K@std@@@std@@@2@@std@@AEAAX_KAEBU_Value_init_tag@1@@Z 0000000180024590 f i collisioncodegen_CollisionGeometry.obj
 0001:00023700       ??$_Resize@U_Value_init_tag@std@@@?$vector@_KV?$allocator@_K@std@@@std@@AEAAX_KAEBU_Value_init_tag@1@@Z 0000000180024700 f i collisioncodegen_CollisionGeometry.obj
 0001:00023870       ??$_Resize_reallocate@U_Value_init_tag@std@@@?$vector@V?$vector@_KV?$allocator@_K@std@@@std@@V?$allocator@V?$vector@_KV?$allocator@_K@std@@@std@@@2@@std@@AEAAX_KAEBU_Value_init_tag@1@@Z 0000000180024870 f i collisioncodegen_CollisionGeometry.obj
 0001:000239c0       ??$_Resize_reallocate@U_Value_init_tag@std@@@?$vector@_KV?$allocator@_K@std@@@std@@AEAAX_KAEBU_Value_init_tag@1@@Z 00000001800249c0 f i collisioncodegen_CollisionGeometry.obj
 0001:00023b10       ??$_Seek_wrapped@V?$_Vector_iterator@V?$_Vector_val@U?$_Simple_types@N@std@@@std@@@std@@PEAN@std@@YAXAEAV?$_Vector_iterator@V?$_Vector_val@U?$_Simple_types@N@std@@@std@@@0@$$QEAPEAN@Z 0000000180024b10 f i collisioncodegen_CollisionGeometry.obj
 0001:00023b40       ??$_Seek_wrapped@V?$_Vector_iterator@V?$_Vector_val@U?$_Simple_types@_K@std@@@std@@@std@@AEAPEA_K@std@@YAXAEAV?$_Vector_iterator@V?$_Vector_val@U?$_Simple_types@_K@std@@@std@@@0@AEAPEA_K@Z 0000000180024b40 f i collisioncodegen_CollisionGeometry.obj
 0001:00023b70       ??$_Seek_wrapped@V?$_Vector_iterator@V?$_Vector_val@U?$_Simple_types@_K@std@@@std@@@std@@AEBQEA_K@std@@YAXAEAV?$_Vector_iterator@V?$_Vector_val@U?$_Simple_types@_K@std@@@std@@@0@AEBQEA_K@Z 0000000180024b70 f i collisioncodegen_CollisionGeometry.obj
 0001:00023ba0       ??$_Sort_heap_unchecked@PEA_KU?$less@X@std@@@std@@YAXPEA_K0U?$less@X@0@@Z 0000000180024ba0 f i collisioncodegen_CollisionGeometry.obj
 0001:00023c00       ??$_Sort_unchecked@PEA_KU?$less@X@std@@@std@@YAXPEA_K0_JU?$less@X@0@@Z 0000000180024c00 f i collisioncodegen_CollisionGeometry.obj
 0001:00023d40       ??$_To_address@PEAN@std@@YA?A_PAEBQEAN@Z 0000000180024d40 f i collisioncodegen_CollisionGeometry.obj
 0001:00023d50       ??$_To_address@PEA_K@std@@YA?A_PAEBQEA_K@Z 0000000180024d50 f i collisioncodegen_CollisionGeometry.obj
 0001:00023d60       ??$_Unfancy@N@std@@YAPEANPEAN@Z 0000000180024d60 f i collisioncodegen_CollisionGeometry.obj
 0001:00023d70       ??$_Unfancy@V?$vector@_KV?$allocator@_K@std@@@std@@@std@@YAPEAV?$vector@_KV?$allocator@_K@std@@@0@PEAV10@@Z 0000000180024d70 f i collisioncodegen_CollisionGeometry.obj
 0001:00023d80       ??$_Unfancy@_K@std@@YAPEA_KPEA_K@Z 0000000180024d80 f i collisioncodegen_CollisionGeometry.obj
 0001:00023d90       ??$_Uninitialized_move@PEANV?$allocator@N@std@@@std@@YAPEANQEAN0PEANAEAV?$allocator@N@0@@Z 0000000180024d90 f i collisioncodegen_CollisionGeometry.obj
 0001:00023e70       ??$_Uninitialized_move@PEAV?$vector@_KV?$allocator@_K@std@@@std@@V?$allocator@V?$vector@_KV?$allocator@_K@std@@@std@@@2@@std@@YAPEAV?$vector@_KV?$allocator@_K@std@@@0@QEAV10@0PEAV10@AEAV?$allocator@V?$vector@_KV?$allocator@_K@std@@@std@@@0@@Z 0000000180024e70 f i collisioncodegen_CollisionGeometry.obj
 0001:00023f20       ??$_Uninitialized_move@PEA_KV?$allocator@_K@std@@@std@@YAPEA_KQEA_K0PEA_KAEAV?$allocator@_K@0@@Z 0000000180024f20 f i collisioncodegen_CollisionGeometry.obj
 0001:00024000       ??$_Uninitialized_value_construct_n@V?$allocator@V?$vector@_KV?$allocator@_K@std@@@std@@@std@@@std@@YAPEAV?$vector@_KV?$allocator@_K@std@@@0@PEAV10@_KAEAV?$allocator@V?$vector@_KV?$allocator@_K@std@@@std@@@0@@Z 0000000180025000 f i collisioncodegen_CollisionGeometry.obj
 0001:00024070       ??$_Uninitialized_value_construct_n@V?$allocator@_K@std@@@std@@YAPEA_KPEA_K_KAEAV?$allocator@_K@0@@Z 0000000180025070 f i collisioncodegen_CollisionGeometry.obj
 0001:00024120       ??$_Zero_range@PEA_K@std@@YAPEA_KQEA_K0@Z 0000000180025120 f i collisioncodegen_CollisionGeometry.obj
 0001:00024180       ??$addressof@N@std@@YAPEANAEAN@Z 0000000180025180 f i collisioncodegen_CollisionGeometry.obj
 0001:00024190       ??$addressof@V?$_Vector_val@U?$_Simple_types@N@std@@@std@@@std@@YAPEAV?$_Vector_val@U?$_Simple_types@N@std@@@0@AEAV10@@Z 0000000180025190 f i collisioncodegen_CollisionGeometry.obj
 0001:000241a0       ??$addressof@V?$_Vector_val@U?$_Simple_types@_K@std@@@std@@@std@@YAPEAV?$_Vector_val@U?$_Simple_types@_K@std@@@0@AEAV10@@Z 00000001800251a0 f i collisioncodegen_CollisionGeometry.obj
 0001:000241b0       ??$addressof@_K@std@@YAPEA_KAEA_K@Z 00000001800251b0 f i collisioncodegen_CollisionGeometry.obj
 0001:000241c0       ??$construct@NN@?$_Default_allocator_traits@V?$allocator@N@std@@@std@@SAXAEAV?$allocator@N@1@QEAN$$QEAN@Z 00000001800251c0 f i collisioncodegen_CollisionGeometry.obj
 0001:00024210       ??$construct@V?$vector@_KV?$allocator@_K@std@@@std@@$$V@?$_Default_allocator_traits@V?$allocator@V?$vector@_KV?$allocator@_K@std@@@std@@@std@@@std@@SAXAEAV?$allocator@V?$vector@_KV?$allocator@_K@std@@@std@@@1@QEAV?$vector@_KV?$allocator@_K@std@@@1@@Z 0000000180025210 f i collisioncodegen_CollisionGeometry.obj
 0001:00024250       ??$construct@V?$vector@_KV?$allocator@_K@std@@@std@@V12@@?$_Default_allocator_traits@V?$allocator@V?$vector@_KV?$allocator@_K@std@@@std@@@std@@@std@@SAXAEAV?$allocator@V?$vector@_KV?$allocator@_K@std@@@std@@@1@QEAV?$vector@_KV?$allocator@_K@std@@@1@$$QEAV31@@Z 0000000180025250 f i collisioncodegen_CollisionGeometry.obj
 0001:000242a0       ??$construct@_K$$V@?$_Default_allocator_traits@V?$allocator@_K@std@@@std@@SAXAEAV?$allocator@_K@1@QEA_K@Z 00000001800252a0 f i collisioncodegen_CollisionGeometry.obj
 0001:000242e0       ??$construct@_KAEB_K@?$_Default_allocator_traits@V?$allocator@_K@std@@@std@@SAXAEAV?$allocator@_K@1@QEA_KAEB_K@Z 00000001800252e0 f i collisioncodegen_CollisionGeometry.obj
 0001:00024330       ??$construct@_K_K@?$_Default_allocator_traits@V?$allocator@_K@std@@@std@@SAXAEAV?$allocator@_K@1@QEA_K$$QEA_K@Z 0000000180025330 f i collisioncodegen_CollisionGeometry.obj
 0001:00024380       ??$destroy@V?$vector@_KV?$allocator@_K@std@@@std@@@?$_Default_allocator_traits@V?$allocator@V?$vector@_KV?$allocator@_K@std@@@std@@@std@@@std@@SAXAEAV?$allocator@V?$vector@_KV?$allocator@_K@std@@@std@@@1@QEAV?$vector@_KV?$allocator@_K@std@@@1@@Z 0000000180025380 f i collisioncodegen_CollisionGeometry.obj
 0001:000243a0       ??$endl@DU?$char_traits@D@std@@@std@@YAAEAV?$basic_ostream@DU?$char_traits@D@std@@@0@AEAV10@@Z 00000001800253a0 f i collisioncodegen_CollisionGeometry.obj
 0001:000243f0       ??$exchange@PEA_K$$T@std@@YAPEA_KAEAPEA_K$$QEA$$T@Z 00000001800253f0 f i collisioncodegen_CollisionGeometry.obj
 0001:00024430       ??$forward@AEAPEA_K@std@@YAAEAPEA_KAEAPEA_K@Z 0000000180025430 f i collisioncodegen_CollisionGeometry.obj
 0001:00024440       ??$forward@AEBQEA_K@std@@YAAEBQEA_KAEBQEA_K@Z 0000000180025440 f i collisioncodegen_CollisionGeometry.obj
 0001:00024450       ??$forward@AEB_K@std@@YAAEB_KAEB_K@Z 0000000180025450 f i collisioncodegen_CollisionGeometry.obj
 0001:00024460       ??$forward@N@std@@YA$$QEANAEAN@Z 0000000180025460 f i collisioncodegen_CollisionGeometry.obj
 0001:00024470       ??$forward@PEAN@std@@YA$$QEAPEANAEAPEAN@Z 0000000180025470 f i collisioncodegen_CollisionGeometry.obj
 0001:00024480       ??$forward@PEA_K@std@@YA$$QEAPEA_KAEAPEA_K@Z 0000000180025480 f i collisioncodegen_CollisionGeometry.obj
 0001:00024490       ??$forward@V?$allocator@_K@std@@@std@@YA$$QEAV?$allocator@_K@0@AEAV10@@Z 0000000180025490 f i collisioncodegen_CollisionGeometry.obj
 0001:000244a0       ??$forward@V?$vector@_KV?$allocator@_K@std@@@std@@@std@@YA$$QEAV?$vector@_KV?$allocator@_K@std@@@0@AEAV10@@Z 00000001800254a0 f i collisioncodegen_CollisionGeometry.obj
 0001:000244b0       ??$forward@_K@std@@YA$$QEA_KAEA_K@Z 00000001800254b0 f i collisioncodegen_CollisionGeometry.obj
 0001:000244c0       ??$max_element@V?$_Vector_iterator@V?$_Vector_val@U?$_Simple_types@N@std@@@std@@@std@@@std@@YA?AV?$_Vector_iterator@V?$_Vector_val@U?$_Simple_types@N@std@@@std@@@0@V10@0@Z 00000001800254c0 f i collisioncodegen_CollisionGeometry.obj
 0001:00024510       ??$max_element@V?$_Vector_iterator@V?$_Vector_val@U?$_Simple_types@N@std@@@std@@@std@@U?$less@X@2@@std@@YA?AV?$_Vector_iterator@V?$_Vector_val@U?$_Simple_types@N@std@@@std@@@0@V10@0U?$less@X@0@@Z 0000000180025510 f i collisioncodegen_CollisionGeometry.obj
 0001:000245a0       ??$min@_K@std@@YAAEB_KAEB_K0@Z 00000001800255a0 f i collisioncodegen_CollisionGeometry.obj
 0001:000245f0       ??$move@AEAN@std@@YA$$QEANAEAN@Z 00000001800255f0 f i collisioncodegen_CollisionGeometry.obj
 0001:00024600       ??$move@AEAV?$allocator@_K@std@@@std@@YA$$QEAV?$allocator@_K@0@AEAV10@@Z 0000000180025600 f i collisioncodegen_CollisionGeometry.obj
 0001:00024610       ??$move@AEAV?$vector@_KV?$allocator@_K@std@@@std@@@std@@YA$$QEAV?$vector@_KV?$allocator@_K@std@@@0@AEAV10@@Z 0000000180025610 f i collisioncodegen_CollisionGeometry.obj
 0001:00024620       ??$move@AEA_K@std@@YA$$QEA_KAEA_K@Z 0000000180025620 f i collisioncodegen_CollisionGeometry.obj
 0001:00024630       ??$sort@V?$_Vector_iterator@V?$_Vector_val@U?$_Simple_types@_K@std@@@std@@@std@@@std@@YAXV?$_Vector_iterator@V?$_Vector_val@U?$_Simple_types@_K@std@@@std@@@0@0@Z 0000000180025630 f i collisioncodegen_CollisionGeometry.obj
 0001:00024670       ??$sort@V?$_Vector_iterator@V?$_Vector_val@U?$_Simple_types@_K@std@@@std@@@std@@U?$less@X@2@@std@@YAXV?$_Vector_iterator@V?$_Vector_val@U?$_Simple_types@_K@std@@@std@@@0@0U?$less@X@0@@Z 0000000180025670 f i collisioncodegen_CollisionGeometry.obj
 0001:000246f0       ??$swap@_K$0A@@std@@YAXAEA_K0@Z 00000001800256f0 f i collisioncodegen_CollisionGeometry.obj
 0001:00024740       ??$unique@V?$_Vector_iterator@V?$_Vector_val@U?$_Simple_types@_K@std@@@std@@@std@@@std@@YA?AV?$_Vector_iterator@V?$_Vector_val@U?$_Simple_types@_K@std@@@std@@@0@V10@0@Z 0000000180025740 f i collisioncodegen_CollisionGeometry.obj
 0001:00024790       ??$unique@V?$_Vector_iterator@V?$_Vector_val@U?$_Simple_types@_K@std@@@std@@@std@@U?$equal_to@X@2@@std@@YA?AV?$_Vector_iterator@V?$_Vector_val@U?$_Simple_types@_K@std@@@std@@@0@V10@0U?$equal_to@X@0@@Z 0000000180025790 f i collisioncodegen_CollisionGeometry.obj
 0001:000248f0       ??0?$_Uninitialized_backout_al@V?$allocator@N@std@@@std@@QEAA@PEANAEAV?$allocator@N@1@@Z 00000001800258f0 f i collisioncodegen_CollisionGeometry.obj
 0001:00024930       ??0?$_Uninitialized_backout_al@V?$allocator@V?$vector@_KV?$allocator@_K@std@@@std@@@std@@@std@@QEAA@PEAV?$vector@_KV?$allocator@_K@std@@@1@AEAV?$allocator@V?$vector@_KV?$allocator@_K@std@@@std@@@1@@Z 0000000180025930 f i collisioncodegen_CollisionGeometry.obj
 0001:00024970       ??0?$_Uninitialized_backout_al@V?$allocator@_K@std@@@std@@QEAA@PEA_KAEAV?$allocator@_K@1@@Z 0000000180025970 f i collisioncodegen_CollisionGeometry.obj
 0001:000249b0       ??0?$_Vector_const_iterator@V?$_Vector_val@U?$_Simple_types@N@std@@@std@@@std@@QEAA@PEANPEBU_Container_base0@1@@Z 00000001800259b0 f i collisioncodegen_CollisionGeometry.obj
 0001:000249f0       ??0?$_Vector_const_iterator@V?$_Vector_val@U?$_Simple_types@_K@std@@@std@@@std@@QEAA@PEA_KPEBU_Container_base0@1@@Z 00000001800259f0 f i collisioncodegen_CollisionGeometry.obj
 0001:00024a30       ??0?$_Vector_iterator@V?$_Vector_val@U?$_Simple_types@N@std@@@std@@@std@@QEAA@PEANPEBU_Container_base0@1@@Z 0000000180025a30 f i collisioncodegen_CollisionGeometry.obj
 0001:00024a70       ??0?$_Vector_iterator@V?$_Vector_val@U?$_Simple_types@_K@std@@@std@@@std@@QEAA@PEA_KPEBU_Container_base0@1@@Z 0000000180025a70 f i collisioncodegen_CollisionGeometry.obj
 0001:00024ab0       ??0?$_Vector_val@U?$_Simple_types@N@std@@@std@@QEAA@XZ 0000000180025ab0 f i collisioncodegen_CollisionGeometry.obj
 0001:00024af0       ??0?$_Vector_val@U?$_Simple_types@_K@std@@@std@@QEAA@PEA_K00@Z 0000000180025af0 f i collisioncodegen_CollisionGeometry.obj
 0001:00024b40       ??0?$_Vector_val@U?$_Simple_types@_K@std@@@std@@QEAA@XZ 0000000180025b40 f i collisioncodegen_CollisionGeometry.obj
 0001:00024b80       ??0?$allocator@N@std@@QEAA@XZ 0000000180025b80 f i collisioncodegen_CollisionGeometry.obj
 0001:00024b90       ??0?$allocator@_K@std@@QEAA@XZ 0000000180025b90 f i collisioncodegen_CollisionGeometry.obj
 0001:00024ba0       ??0?$vector@NV?$allocator@N@std@@@std@@QEAA@XZ 0000000180025ba0 f i collisioncodegen_CollisionGeometry.obj
 0001:00024be0       ??0?$vector@_KV?$allocator@_K@std@@@std@@QEAA@$$QEAV01@@Z 0000000180025be0 f i collisioncodegen_CollisionGeometry.obj
 0001:00024ce0       ??0?$vector@_KV?$allocator@_K@std@@@std@@QEAA@XZ 0000000180025ce0 f i collisioncodegen_CollisionGeometry.obj
 0001:00024d20       ??0_Sentry_base@?$basic_ostream@DU?$char_traits@D@std@@@std@@QEAA@AEAV12@@Z 0000000180025d20 f i collisioncodegen_CollisionGeometry.obj
 0001:00024d90       ??0bad_alloc@std@@AEAA@QEBD@Z 0000000180025d90 f i collisioncodegen_CollisionGeometry.obj
 0001:00024dd0       ??0bad_alloc@std@@QEAA@AEBV01@@Z 0000000180025dd0 f i collisioncodegen_CollisionGeometry.obj
 0001:00024e10       ??0bad_array_new_length@std@@QEAA@AEBV01@@Z 0000000180025e10 f i collisioncodegen_CollisionGeometry.obj
 0001:00024e50       ??0bad_array_new_length@std@@QEAA@XZ 0000000180025e50 f i collisioncodegen_CollisionGeometry.obj
 0001:00024e90       ??0exception@std@@QEAA@AEBV01@@Z 0000000180025e90 f i collisioncodegen_CollisionGeometry.obj
 0001:00024ef0       ??0exception@std@@QEAA@QEBDH@Z 0000000180025ef0 f i collisioncodegen_CollisionGeometry.obj
 0001:00024f40       ??0sentry@?$basic_ostream@DU?$char_traits@D@std@@@std@@QEAA@AEAV12@@Z 0000000180025f40 f i collisioncodegen_CollisionGeometry.obj
 0001:00025020       ??1?$_Uninitialized_backout_al@V?$allocator@N@std@@@std@@QEAA@XZ 0000000180026020 f i collisioncodegen_CollisionGeometry.obj
 0001:00025050       ??1?$_Uninitialized_backout_al@V?$allocator@V?$vector@_KV?$allocator@_K@std@@@std@@@std@@@std@@QEAA@XZ 0000000180026050 f i collisioncodegen_CollisionGeometry.obj
 0001:00025080       ??1?$_Uninitialized_backout_al@V?$allocator@_K@std@@@std@@QEAA@XZ 0000000180026080 f i collisioncodegen_CollisionGeometry.obj
 0001:000250b0       ??1?$vector@NV?$allocator@N@std@@@std@@QEAA@XZ 00000001800260b0 f i collisioncodegen_CollisionGeometry.obj
 0001:000250d0       ??1?$vector@U_ccd_vec3_t@@V?$allocator@U_ccd_vec3_t@@@std@@@std@@QEAA@XZ 00000001800260d0 f i collisioncodegen_CollisionGeometry.obj
 0001:000250f0       ??1?$vector@U_idx_vec3_t@shared_robotics@@V?$allocator@U_idx_vec3_t@shared_robotics@@@std@@@std@@QEAA@XZ 00000001800260f0 f i collisioncodegen_CollisionGeometry.obj
 0001:00025110       ??1?$vector@V?$vector@_KV?$allocator@_K@std@@@std@@V?$allocator@V?$vector@_KV?$allocator@_K@std@@@std@@@2@@std@@QEAA@XZ 0000000180026110 f i collisioncodegen_CollisionGeometry.obj
 0001:00025130       ??1?$vector@_KV?$allocator@_K@std@@@std@@QEAA@XZ 0000000180026130 f i collisioncodegen_CollisionGeometry.obj
 0001:00025150       ??1_Sentry_base@?$basic_ostream@DU?$char_traits@D@std@@@std@@QEAA@XZ 0000000180026150 f i collisioncodegen_CollisionGeometry.obj
 0001:000251b0       ??1bad_alloc@std@@UEAA@XZ  00000001800261b0 f i collisioncodegen_CollisionGeometry.obj
 0001:000251d0       ??1bad_array_new_length@std@@UEAA@XZ 00000001800261d0 f i collisioncodegen_CollisionGeometry.obj
 0001:000251f0       ??1exception@std@@UEAA@XZ  00000001800261f0 f i collisioncodegen_CollisionGeometry.obj
 0001:00025220       ??1sentry@?$basic_ostream@DU?$char_traits@D@std@@@std@@QEAA@XZ 0000000180026220 f i collisioncodegen_CollisionGeometry.obj
 0001:00025270       ??2@YAPEAX_KPEAX@Z         0000000180026270 f i collisioncodegen_CollisionGeometry.obj
 0001:00025280       ??A?$vector@U_ccd_vec3_t@@V?$allocator@U_ccd_vec3_t@@@std@@@std@@QEBAAEBU_ccd_vec3_t@@_K@Z 0000000180026280 f i collisioncodegen_CollisionGeometry.obj
 0001:000252b0       ??A?$vector@U_idx_vec3_t@shared_robotics@@V?$allocator@U_idx_vec3_t@shared_robotics@@@std@@@std@@QEAAAEAU_idx_vec3_t@shared_robotics@@_K@Z 00000001800262b0 f i collisioncodegen_CollisionGeometry.obj
 0001:000252e0       ??A?$vector@V?$vector@_KV?$allocator@_K@std@@@std@@V?$allocator@V?$vector@_KV?$allocator@_K@std@@@std@@@2@@std@@QEAAAEAV?$vector@_KV?$allocator@_K@std@@@1@_K@Z 00000001800262e0 f i collisioncodegen_CollisionGeometry.obj
 0001:00025310       ??A?$vector@V?$vector@_KV?$allocator@_K@std@@@std@@V?$allocator@V?$vector@_KV?$allocator@_K@std@@@std@@@2@@std@@QEBAAEBV?$vector@_KV?$allocator@_K@std@@@1@_K@Z 0000000180026310 f i collisioncodegen_CollisionGeometry.obj
 0001:00025340       ??A?$vector@_KV?$allocator@_K@std@@@std@@QEBAAEB_K_K@Z 0000000180026340 f i collisioncodegen_CollisionGeometry.obj
 0001:00025370       ??Bsentry@?$basic_ostream@DU?$char_traits@D@std@@@std@@QEBA_NXZ 0000000180026370 f i collisioncodegen_CollisionGeometry.obj
 0001:00025380       ??G?$_Vector_const_iterator@V?$_Vector_val@U?$_Simple_types@N@std@@@std@@@std@@QEBA_JAEBV01@@Z 0000000180026380 f i collisioncodegen_CollisionGeometry.obj
 0001:000253c0       ??_G?$vector@_KV?$allocator@_K@std@@@std@@QEAAPEAXI@Z 00000001800263c0 f i collisioncodegen_CollisionGeometry.obj
 0001:00025400       ??_ECollisionGeometry@shared_robotics@@UEAAPEAXI@Z 0000000180026400 f i collisioncodegen_CollisionGeometry.obj
 0001:00025400       ??_GCollisionGeometry@shared_robotics@@UEAAPEAXI@Z 0000000180026400 f i collisioncodegen_CollisionGeometry.obj
 0001:00025440       ??_Ebad_alloc@std@@UEAAPEAXI@Z 0000000180026440 f i collisioncodegen_CollisionGeometry.obj
 0001:00025440       ??_Gbad_alloc@std@@UEAAPEAXI@Z 0000000180026440 f i collisioncodegen_CollisionGeometry.obj
 0001:00025480       ??_Ebad_array_new_length@std@@UEAAPEAXI@Z 0000000180026480 f i collisioncodegen_CollisionGeometry.obj
 0001:00025480       ??_Gbad_array_new_length@std@@UEAAPEAXI@Z 0000000180026480 f i collisioncodegen_CollisionGeometry.obj
 0001:000254c0       ??_Eexception@std@@UEAAPEAXI@Z 00000001800264c0 f i collisioncodegen_CollisionGeometry.obj
 0001:000254c0       ??_Gexception@std@@UEAAPEAXI@Z 00000001800264c0 f i collisioncodegen_CollisionGeometry.obj
 0001:00025500       ?_Adjust_manually_vector_aligned@std@@YAXAEAPEAXAEA_K@Z 0000000180026500 f i collisioncodegen_CollisionGeometry.obj
 0001:000255a0       ?_Adopt@_Iterator_base0@std@@QEAAXPEBX@Z 00000001800265a0 f i collisioncodegen_CollisionGeometry.obj
 0001:000255b0       ?_Alloc_proxy@_Container_base0@std@@QEAAXAEBU_Fake_allocator@2@@Z 00000001800265b0 f i collisioncodegen_CollisionGeometry.obj
 0001:000255c0       ?_Allocate@_Default_allocate_traits@std@@SAPEAX_K@Z 00000001800265c0 f i collisioncodegen_CollisionGeometry.obj
 0001:000255e0       ?_Calculate_growth@?$vector@NV?$allocator@N@std@@@std@@AEBA_K_K@Z 00000001800265e0 f i collisioncodegen_CollisionGeometry.obj
 0001:00025670       ?_Calculate_growth@?$vector@V?$vector@_KV?$allocator@_K@std@@@std@@V?$allocator@V?$vector@_KV?$allocator@_K@std@@@std@@@2@@std@@AEBA_K_K@Z 0000000180026670 f i collisioncodegen_CollisionGeometry.obj
 0001:00025700       ?_Calculate_growth@?$vector@_KV?$allocator@_K@std@@@std@@AEBA_K_K@Z 0000000180026700 f i collisioncodegen_CollisionGeometry.obj
 0001:00025790       ?_Change_array@?$vector@NV?$allocator@N@std@@@std@@AEAAXQEAN_K1@Z 0000000180026790 f i collisioncodegen_CollisionGeometry.obj
 0001:00025880       ?_Change_array@?$vector@V?$vector@_KV?$allocator@_K@std@@@std@@V?$allocator@V?$vector@_KV?$allocator@_K@std@@@std@@@2@@std@@AEAAXQEAV?$vector@_KV?$allocator@_K@std@@@2@_K1@Z 0000000180026880 f i collisioncodegen_CollisionGeometry.obj
 0001:00025980       ?_Change_array@?$vector@_KV?$allocator@_K@std@@@std@@AEAAXQEA_K_K1@Z 0000000180026980 f i collisioncodegen_CollisionGeometry.obj
 0001:00025a70       ?_Compat@?$_Vector_const_iterator@V?$_Vector_val@U?$_Simple_types@N@std@@@std@@@std@@QEBAXAEBV12@@Z 0000000180026a70 f i collisioncodegen_CollisionGeometry.obj
 0001:00025a80       ?_Get_first@?$_Compressed_pair@V?$allocator@N@std@@V?$_Vector_val@U?$_Simple_types@N@std@@@2@$00@std@@QEAAAEAV?$allocator@N@2@XZ 0000000180026a80 f i collisioncodegen_CollisionGeometry.obj
 0001:00025a90       ?_Get_first@?$_Compressed_pair@V?$allocator@N@std@@V?$_Vector_val@U?$_Simple_types@N@std@@@2@$00@std@@QEBAAEBV?$allocator@N@2@XZ 0000000180026a90 f i collisioncodegen_CollisionGeometry.obj
 0001:00025aa0       ?_Get_first@?$_Compressed_pair@V?$allocator@U_ccd_vec3_t@@@std@@V?$_Vector_val@U?$_Simple_types@U_ccd_vec3_t@@@std@@@2@$00@std@@QEAAAEAV?$allocator@U_ccd_vec3_t@@@2@XZ 0000000180026aa0 f i collisioncodegen_CollisionGeometry.obj
 0001:00025ab0       ?_Get_first@?$_Compressed_pair@V?$allocator@U_idx_vec3_t@shared_robotics@@@std@@V?$_Vector_val@U?$_Simple_types@U_idx_vec3_t@shared_robotics@@@std@@@2@$00@std@@QEAAAEAV?$allocator@U_idx_vec3_t@shared_robotics@@@2@XZ 0000000180026ab0 f i collisioncodegen_CollisionGeometry.obj
 0001:00025ac0       ?_Get_first@?$_Compressed_pair@V?$allocator@V?$vector@_KV?$allocator@_K@std@@@std@@@std@@V?$_Vector_val@U?$_Simple_types@V?$vector@_KV?$allocator@_K@std@@@std@@@std@@@2@$00@std@@QEAAAEAV?$allocator@V?$vector@_KV?$allocator@_K@std@@@std@@@2@XZ 0000000180026ac0 f i collisioncodegen_CollisionGeometry.obj
 0001:00025ad0       ?_Get_first@?$_Compressed_pair@V?$allocator@V?$vector@_KV?$allocator@_K@std@@@std@@@std@@V?$_Vector_val@U?$_Simple_types@V?$vector@_KV?$allocator@_K@std@@@std@@@std@@@2@$00@std@@QEBAAEBV?$allocator@V?$vector@_KV?$allocator@_K@std@@@std@@@2@XZ 0000000180026ad0 f i collisioncodegen_CollisionGeometry.obj
 0001:00025ae0       ?_Get_first@?$_Compressed_pair@V?$allocator@_K@std@@V?$_Vector_val@U?$_Simple_types@_K@std@@@2@$00@std@@QEAAAEAV?$allocator@_K@2@XZ 0000000180026ae0 f i collisioncodegen_CollisionGeometry.obj
 0001:00025af0       ?_Get_first@?$_Compressed_pair@V?$allocator@_K@std@@V?$_Vector_val@U?$_Simple_types@_K@std@@@2@$00@std@@QEBAAEBV?$allocator@_K@2@XZ 0000000180026af0 f i collisioncodegen_CollisionGeometry.obj
 0001:00025b00       ?_Getal@?$vector@NV?$allocator@N@std@@@std@@AEAAAEAV?$allocator@N@2@XZ 0000000180026b00 f i collisioncodegen_CollisionGeometry.obj
 0001:00025b20       ?_Getal@?$vector@NV?$allocator@N@std@@@std@@AEBAAEBV?$allocator@N@2@XZ 0000000180026b20 f i collisioncodegen_CollisionGeometry.obj
 0001:00025b40       ?_Getal@?$vector@U_ccd_vec3_t@@V?$allocator@U_ccd_vec3_t@@@std@@@std@@AEAAAEAV?$allocator@U_ccd_vec3_t@@@2@XZ 0000000180026b40 f i collisioncodegen_CollisionGeometry.obj
 0001:00025b60       ?_Getal@?$vector@U_idx_vec3_t@shared_robotics@@V?$allocator@U_idx_vec3_t@shared_robotics@@@std@@@std@@AEAAAEAV?$allocator@U_idx_vec3_t@shared_robotics@@@2@XZ 0000000180026b60 f i collisioncodegen_CollisionGeometry.obj
 0001:00025b80       ?_Getal@?$vector@V?$vector@_KV?$allocator@_K@std@@@std@@V?$allocator@V?$vector@_KV?$allocator@_K@std@@@std@@@2@@std@@AEAAAEAV?$allocator@V?$vector@_KV?$allocator@_K@std@@@std@@@2@XZ 0000000180026b80 f i collisioncodegen_CollisionGeometry.obj
 0001:00025ba0       ?_Getal@?$vector@V?$vector@_KV?$allocator@_K@std@@@std@@V?$allocator@V?$vector@_KV?$allocator@_K@std@@@std@@@2@@std@@AEBAAEBV?$allocator@V?$vector@_KV?$allocator@_K@std@@@std@@@2@XZ 0000000180026ba0 f i collisioncodegen_CollisionGeometry.obj
 0001:00025bc0       ?_Getal@?$vector@_KV?$allocator@_K@std@@@std@@AEAAAEAV?$allocator@_K@2@XZ 0000000180026bc0 f i collisioncodegen_CollisionGeometry.obj
 0001:00025be0       ?_Getal@?$vector@_KV?$allocator@_K@std@@@std@@AEBAAEBV?$allocator@_K@2@XZ 0000000180026be0 f i collisioncodegen_CollisionGeometry.obj
 0001:00025c00       ?_Orphan_all@_Container_base0@std@@QEAAXXZ 0000000180026c00 f i collisioncodegen_CollisionGeometry.obj
 0001:00025c10       ?_Orphan_range@?$vector@NV?$allocator@N@std@@@std@@AEBAXPEAN0@Z 0000000180026c10 f i collisioncodegen_CollisionGeometry.obj
 0001:00025c20       ?_Orphan_range@?$vector@V?$vector@_KV?$allocator@_K@std@@@std@@V?$allocator@V?$vector@_KV?$allocator@_K@std@@@std@@@2@@std@@AEBAXPEAV?$vector@_KV?$allocator@_K@std@@@2@0@Z 0000000180026c20 f i collisioncodegen_CollisionGeometry.obj
 0001:00025c30       ?_Orphan_range@?$vector@_KV?$allocator@_K@std@@@std@@AEBAXPEA_K0@Z 0000000180026c30 f i collisioncodegen_CollisionGeometry.obj
 0001:00025c40       ?_Release@?$_Uninitialized_backout_al@V?$allocator@N@std@@@std@@QEAAPEANXZ 0000000180026c40 f i collisioncodegen_CollisionGeometry.obj
 0001:00025c60       ?_Release@?$_Uninitialized_backout_al@V?$allocator@V?$vector@_KV?$allocator@_K@std@@@std@@@std@@@std@@QEAAPEAV?$vector@_KV?$allocator@_K@std@@@2@XZ 0000000180026c60 f i collisioncodegen_CollisionGeometry.obj
 0001:00025c80       ?_Release@?$_Uninitialized_backout_al@V?$allocator@_K@std@@@std@@QEAAPEA_KXZ 0000000180026c80 f i collisioncodegen_CollisionGeometry.obj
 0001:00025ca0       ?_Seek_to@?$_Vector_const_iterator@V?$_Vector_val@U?$_Simple_types@N@std@@@std@@@std@@QEAAXPEBN@Z 0000000180026ca0 f i collisioncodegen_CollisionGeometry.obj
 0001:00025cd0       ?_Seek_to@?$_Vector_const_iterator@V?$_Vector_val@U?$_Simple_types@_K@std@@@std@@@std@@QEAAXPEB_K@Z 0000000180026cd0 f i collisioncodegen_CollisionGeometry.obj
 0001:00025d00       ?_Swap_proxy_and_iterators@_Container_base0@std@@QEAAXAEAU12@@Z 0000000180026d00 f i collisioncodegen_CollisionGeometry.obj
 0001:00025d10       ?_Throw_bad_array_new_length@std@@YAXXZ 0000000180026d10 f i collisioncodegen_CollisionGeometry.obj
 0001:00025d40       ?_Tidy@?$vector@NV?$allocator@N@std@@@std@@AEAAXXZ 0000000180026d40 f i collisioncodegen_CollisionGeometry.obj
 0001:00025e10       ?_Tidy@?$vector@U_ccd_vec3_t@@V?$allocator@U_ccd_vec3_t@@@std@@@std@@AEAAXXZ 0000000180026e10 f i collisioncodegen_CollisionGeometry.obj
 0001:00025ef0       ?_Tidy@?$vector@U_idx_vec3_t@shared_robotics@@V?$allocator@U_idx_vec3_t@shared_robotics@@@std@@@std@@AEAAXXZ 0000000180026ef0 f i collisioncodegen_CollisionGeometry.obj
 0001:00025fd0       ?_Tidy@?$vector@V?$vector@_KV?$allocator@_K@std@@@std@@V?$allocator@V?$vector@_KV?$allocator@_K@std@@@std@@@2@@std@@AEAAXXZ 0000000180026fd0 f i collisioncodegen_CollisionGeometry.obj
 0001:000260b0       ?_Tidy@?$vector@_KV?$allocator@_K@std@@@std@@AEAAXXZ 00000001800270b0 f i collisioncodegen_CollisionGeometry.obj
 0001:00026180       ?_Unchecked_begin@?$vector@U_ccd_vec3_t@@V?$allocator@U_ccd_vec3_t@@@std@@@std@@QEBAPEBU_ccd_vec3_t@@XZ 0000000180027180 f i collisioncodegen_CollisionGeometry.obj
 0001:00026190       ?_Unchecked_end@?$vector@U_ccd_vec3_t@@V?$allocator@U_ccd_vec3_t@@@std@@@std@@QEBAPEBU_ccd_vec3_t@@XZ 0000000180027190 f i collisioncodegen_CollisionGeometry.obj
 0001:000261a0       ?_Unwrapped@?$_Vector_iterator@V?$_Vector_val@U?$_Simple_types@N@std@@@std@@@std@@QEBAPEANXZ 00000001800271a0 f i collisioncodegen_CollisionGeometry.obj
 0001:000261c0       ?_Unwrapped@?$_Vector_iterator@V?$_Vector_val@U?$_Simple_types@_K@std@@@std@@@std@@QEBAPEA_KXZ 00000001800271c0 f i collisioncodegen_CollisionGeometry.obj
 0001:000261e0       ?_Xlength@?$vector@NV?$allocator@N@std@@@std@@CAXXZ 00000001800271e0 f i collisioncodegen_CollisionGeometry.obj
 0001:00026200       ?_Xlength@?$vector@V?$vector@_KV?$allocator@_K@std@@@std@@V?$allocator@V?$vector@_KV?$allocator@_K@std@@@std@@@2@@std@@CAXXZ 0000000180027200 f i collisioncodegen_CollisionGeometry.obj
 0001:00026220       ?_Xlength@?$vector@_KV?$allocator@_K@std@@@std@@CAXXZ 0000000180027220 f i collisioncodegen_CollisionGeometry.obj
 0001:00026240       ?allocate@?$allocator@N@std@@QEAAPEAN_K@Z 0000000180027240 f i collisioncodegen_CollisionGeometry.obj
 0001:00026270       ?allocate@?$allocator@V?$vector@_KV?$allocator@_K@std@@@std@@@std@@QEAAPEAV?$vector@_KV?$allocator@_K@std@@@2@_K@Z 0000000180027270 f i collisioncodegen_CollisionGeometry.obj
 0001:000262a0       ?allocate@?$allocator@_K@std@@QEAAPEA_K_K@Z 00000001800272a0 f i collisioncodegen_CollisionGeometry.obj
 0001:000262d0       ?begin@?$vector@NV?$allocator@N@std@@@std@@QEAA?AV?$_Vector_iterator@V?$_Vector_val@U?$_Simple_types@N@std@@@std@@@2@XZ 00000001800272d0 f i collisioncodegen_CollisionGeometry.obj
 0001:00026320       ?begin@?$vector@_KV?$allocator@_K@std@@@std@@QEAA?AV?$_Vector_iterator@V?$_Vector_val@U?$_Simple_types@_K@std@@@std@@@2@XZ 0000000180027320 f i collisioncodegen_CollisionGeometry.obj
 0001:00026370       ?capacity@?$vector@NV?$allocator@N@std@@@std@@QEBA_KXZ 0000000180027370 f i collisioncodegen_CollisionGeometry.obj
 0001:000263a0       ?capacity@?$vector@V?$vector@_KV?$allocator@_K@std@@@std@@V?$allocator@V?$vector@_KV?$allocator@_K@std@@@std@@@2@@std@@QEBA_KXZ 00000001800273a0 f i collisioncodegen_CollisionGeometry.obj
 0001:000263e0       ?capacity@?$vector@_KV?$allocator@_K@std@@@std@@QEBA_KXZ 00000001800273e0 f i collisioncodegen_CollisionGeometry.obj
 0001:00026410       ?clear@?$vector@_KV?$allocator@_K@std@@@std@@QEAAXXZ 0000000180027410 f i collisioncodegen_CollisionGeometry.obj
 0001:00026490       ?deallocate@?$allocator@N@std@@QEAAXQEAN_K@Z 0000000180027490 f i collisioncodegen_CollisionGeometry.obj
 0001:000264c0       ?deallocate@?$allocator@U_ccd_vec3_t@@@std@@QEAAXQEAU_ccd_vec3_t@@_K@Z 00000001800274c0 f i collisioncodegen_CollisionGeometry.obj
 0001:000264f0       ?deallocate@?$allocator@U_idx_vec3_t@shared_robotics@@@std@@QEAAXQEAU_idx_vec3_t@shared_robotics@@_K@Z 00000001800274f0 f i collisioncodegen_CollisionGeometry.obj
 0001:00026520       ?deallocate@?$allocator@V?$vector@_KV?$allocator@_K@std@@@std@@@std@@QEAAXQEAV?$vector@_KV?$allocator@_K@std@@@2@_K@Z 0000000180027520 f i collisioncodegen_CollisionGeometry.obj
 0001:00026550       ?deallocate@?$allocator@_K@std@@QEAAXQEA_K_K@Z 0000000180027550 f i collisioncodegen_CollisionGeometry.obj
 0001:00026580       ?end@?$vector@NV?$allocator@N@std@@@std@@QEAA?AV?$_Vector_iterator@V?$_Vector_val@U?$_Simple_types@N@std@@@std@@@2@XZ 0000000180027580 f i collisioncodegen_CollisionGeometry.obj
 0001:000265d0       ?end@?$vector@_KV?$allocator@_K@std@@@std@@QEAA?AV?$_Vector_iterator@V?$_Vector_val@U?$_Simple_types@_K@std@@@std@@@2@XZ 00000001800275d0 f i collisioncodegen_CollisionGeometry.obj
 0001:00026620       ?eof@?$_Narrow_char_traits@DH@std@@SAHXZ 0000000180027620 f i collisioncodegen_CollisionGeometry.obj
 0001:00026630       ?eq_int_type@?$_Narrow_char_traits@DH@std@@SA_NAEBH0@Z 0000000180027630 f i collisioncodegen_CollisionGeometry.obj
 0001:00026670       ?erase@?$vector@_KV?$allocator@_K@std@@@std@@QEAA?AV?$_Vector_iterator@V?$_Vector_val@U?$_Simple_types@_K@std@@@std@@@2@V?$_Vector_const_iterator@V?$_Vector_val@U?$_Simple_types@_K@std@@@std@@@2@0@Z 0000000180027670 f i collisioncodegen_CollisionGeometry.obj
 0001:00026750       ?length@?$_Narrow_char_traits@DH@std@@SA_KQEBD@Z 0000000180027750 f i collisioncodegen_CollisionGeometry.obj
 0001:00026770       ?max@?$numeric_limits@_J@std@@SA_JXZ 0000000180027770 f i collisioncodegen_CollisionGeometry.obj
 0001:00026780       ?max_size@?$_Default_allocator_traits@V?$allocator@N@std@@@std@@SA_KAEBV?$allocator@N@2@@Z 0000000180027780 f i collisioncodegen_CollisionGeometry.obj
 0001:00026790       ?max_size@?$_Default_allocator_traits@V?$allocator@V?$vector@_KV?$allocator@_K@std@@@std@@@std@@@std@@SA_KAEBV?$allocator@V?$vector@_KV?$allocator@_K@std@@@std@@@2@@Z 0000000180027790 f i collisioncodegen_CollisionGeometry.obj
 0001:000267a0       ?max_size@?$_Default_allocator_traits@V?$allocator@_K@std@@@std@@SA_KAEBV?$allocator@_K@2@@Z 00000001800277a0 f i collisioncodegen_CollisionGeometry.obj
 0001:000267b0       ?max_size@?$vector@NV?$allocator@N@std@@@std@@QEBA_KXZ 00000001800277b0 f i collisioncodegen_CollisionGeometry.obj
 0001:00026800       ?max_size@?$vector@V?$vector@_KV?$allocator@_K@std@@@std@@V?$allocator@V?$vector@_KV?$allocator@_K@std@@@std@@@2@@std@@QEBA_KXZ 0000000180027800 f i collisioncodegen_CollisionGeometry.obj
 0001:00026850       ?max_size@?$vector@_KV?$allocator@_K@std@@@std@@QEBA_KXZ 0000000180027850 f i collisioncodegen_CollisionGeometry.obj
 0001:000268a0       ?push_back@?$vector@NV?$allocator@N@std@@@std@@QEAAX$$QEAN@Z 00000001800278a0 f i collisioncodegen_CollisionGeometry.obj
 0001:000268d0       ?push_back@?$vector@_KV?$allocator@_K@std@@@std@@QEAAXAEB_K@Z 00000001800278d0 f i collisioncodegen_CollisionGeometry.obj
 0001:00026900       ?resize@?$vector@V?$vector@_KV?$allocator@_K@std@@@std@@V?$allocator@V?$vector@_KV?$allocator@_K@std@@@std@@@2@@std@@QEAAX_K@Z 0000000180027900 f i collisioncodegen_CollisionGeometry.obj
 0001:00026930       ?resize@?$vector@_KV?$allocator@_K@std@@@std@@QEAAX_K@Z 0000000180027930 f i collisioncodegen_CollisionGeometry.obj
 0001:00026960       ?sign@CollisionGeometry@shared_robotics@@IEBAHN@Z 0000000180027960 f i collisioncodegen_CollisionGeometry.obj
 0001:000269b0       ?size@?$vector@_KV?$allocator@_K@std@@@std@@QEBA_KXZ 00000001800279b0 f i collisioncodegen_CollisionGeometry.obj
 0001:000269e0       ?what@exception@std@@UEBAPEBDXZ 00000001800279e0 f i collisioncodegen_CollisionGeometry.obj
 0001:00026a90       collisioncodegen_makeBox   0000000180027a90 f   collisioncodegen_api.obj
 0001:00026b10       collisioncodegen_makeSphere 0000000180027b10 f   collisioncodegen_api.obj
 0001:00026b70       collisioncodegen_makeCylinder 0000000180027b70 f   collisioncodegen_api.obj
 0001:00026be0       collisioncodegen_makeCapsule 0000000180027be0 f   collisioncodegen_api.obj
 0001:00026c60       collisioncodegen_makeMesh  0000000180027c60 f   collisioncodegen_api.obj
 0001:00026cd0       collisioncodegen_intersect 0000000180027cd0 f   collisioncodegen_api.obj
 0001:00026d60       collisioncodegen_destructGeometry 0000000180027d60 f   collisioncodegen_api.obj
 0001:00026dc0       collisioncodegen_copyGeometry 0000000180027dc0 f   collisioncodegen_api.obj
 0001:00026e30       collisioncodegen_getVertices 0000000180027e30 f   collisioncodegen_api.obj
 0001:00026f00       collisioncodegen_getNumVertices 0000000180027f00 f   collisioncodegen_api.obj
 0001:00026f50       collisioncodegen_getX      0000000180027f50 f   collisioncodegen_api.obj
 0001:00026f70       collisioncodegen_getY      0000000180027f70 f   collisioncodegen_api.obj
 0001:00026f90       collisioncodegen_getZ      0000000180027f90 f   collisioncodegen_api.obj
 0001:00026fb0       collisioncodegen_getRadius 0000000180027fb0 f   collisioncodegen_api.obj
 0001:00026fd0       collisioncodegen_getLength 0000000180027fd0 f   collisioncodegen_api.obj
 0001:00026ff0       collisioncodegen_getType   0000000180027ff0 f   collisioncodegen_api.obj
 0001:00027090       ??$?0$$V@?$_Compressed_pair@V?$allocator@D@std@@V?$_String_val@U?$_Simple_types@D@std@@@2@$00@std@@QEAA@U_Zero_then_variadic_args_t@1@@Z 0000000180028090 f i collisioncodegen_api.obj
 0001:000270c0       ??$?0$$V@?$_Compressed_pair@V?$allocator@U_ccd_vec3_t@@@std@@V?$_Vector_val@U?$_Simple_types@U_ccd_vec3_t@@@std@@@2@$00@std@@QEAA@U_Zero_then_variadic_args_t@1@@Z 00000001800280c0 f i collisioncodegen_api.obj
 0001:000270f0       ??$?0$$V@?$_Compressed_pair@V?$allocator@U_idx_vec3_t@shared_robotics@@@std@@V?$_Vector_val@U?$_Simple_types@U_idx_vec3_t@shared_robotics@@@std@@@2@$00@std@@QEAA@U_Zero_then_variadic_args_t@1@@Z 00000001800280f0 f i collisioncodegen_api.obj
 0001:00027120       ??$?0$$V@?$_Compressed_pair@V?$allocator@V?$vector@_KV?$allocator@_K@std@@@std@@@std@@V?$_Vector_val@U?$_Simple_types@V?$vector@_KV?$allocator@_K@std@@@std@@@std@@@2@$00@std@@QEAA@U_Zero_then_variadic_args_t@1@@Z 0000000180028120 f i collisioncodegen_api.obj
 0001:00027150       ??$?0V?$allocator@U_ccd_vec3_t@@@std@@$$V@?$_Compressed_pair@V?$allocator@U_ccd_vec3_t@@@std@@V?$_Vector_val@U?$_Simple_types@U_ccd_vec3_t@@@std@@@2@$00@std@@QEAA@U_One_then_variadic_args_t@1@$$QEAV?$allocator@U_ccd_vec3_t@@@1@@Z 0000000180028150 f i collisioncodegen_api.obj
 0001:00027190       ??$?0V?$allocator@U_idx_vec3_t@shared_robotics@@@std@@$$V@?$_Compressed_pair@V?$allocator@U_idx_vec3_t@shared_robotics@@@std@@V?$_Vector_val@U?$_Simple_types@U_idx_vec3_t@shared_robotics@@@std@@@2@$00@std@@QEAA@U_One_then_variadic_args_t@1@$$QEAV?$allocator@U_idx_vec3_t@shared_robotics@@@1@@Z 0000000180028190 f i collisioncodegen_api.obj
 0001:000271d0       ??$?0V?$allocator@V?$vector@_KV?$allocator@_K@std@@@std@@@std@@$$V@?$_Compressed_pair@V?$allocator@V?$vector@_KV?$allocator@_K@std@@@std@@@std@@V?$_Vector_val@U?$_Simple_types@V?$vector@_KV?$allocator@_K@std@@@std@@@std@@@2@$00@std@@QEAA@U_One_then_variadic_args_t@1@$$QEAV?$allocator@V?$vector@_KV?$allocator@_K@std@@@std@@@1@@Z 00000001800281d0 f i collisioncodegen_api.obj
 0001:00027210       ??$?0V?$allocator@_K@std@@$$V@?$_Compressed_pair@V?$allocator@_K@std@@V?$_Vector_val@U?$_Simple_types@_K@std@@@2@$00@std@@QEAA@U_One_then_variadic_args_t@1@$$QEAV?$allocator@_K@1@@Z 0000000180028210 f i collisioncodegen_api.obj
 0001:00027250       ??$_Construct@$00PEBD@?$basic_string@DU?$char_traits@D@std@@V?$allocator@D@2@@std@@AEAAXQEBD_K@Z 0000000180028250 f i collisioncodegen_api.obj
 0001:00027420       ??$_Construct_in_place@PEADAEBQEAD@std@@YAXAEAPEADAEBQEAD@Z 0000000180028420 f i collisioncodegen_api.obj
 0001:00027470       ??$_Construct_in_place@U_ccd_vec3_t@@AEBU1@@std@@YAXAEAU_ccd_vec3_t@@AEBU1@@Z 0000000180028470 f i collisioncodegen_api.obj
 0001:000274c0       ??$_Construct_n@AEBQEAU_ccd_vec3_t@@AEBQEAU1@@?$vector@U_ccd_vec3_t@@V?$allocator@U_ccd_vec3_t@@@std@@@std@@AEAAX_KAEBQEAU_ccd_vec3_t@@1@Z 00000001800284c0 f i collisioncodegen_api.obj
 0001:000275a0       ??$_Construct_n@AEBQEAU_idx_vec3_t@shared_robotics@@AEBQEAU12@@?$vector@U_idx_vec3_t@shared_robotics@@V?$allocator@U_idx_vec3_t@shared_robotics@@@std@@@std@@AEAAX_KAEBQEAU_idx_vec3_t@shared_robotics@@1@Z 00000001800285a0 f i collisioncodegen_api.obj
 0001:00027680       ??$_Construct_n@AEBQEAV?$vector@_KV?$allocator@_K@std@@@std@@AEBQEAV12@@?$vector@V?$vector@_KV?$allocator@_K@std@@@std@@V?$allocator@V?$vector@_KV?$allocator@_K@std@@@std@@@2@@std@@AEAAX_KAEBQEAV?$vector@_KV?$allocator@_K@std@@@1@1@Z 0000000180028680 f i collisioncodegen_api.obj
 0001:00027760       ??$_Construct_n@AEBQEA_KAEBQEA_K@?$vector@_KV?$allocator@_K@std@@@std@@AEAAX_KAEBQEA_K1@Z 0000000180028760 f i collisioncodegen_api.obj
 0001:00027840       ??$_Convert_size@_K_K@std@@YA_K_K@Z 0000000180028840 f i collisioncodegen_api.obj
 0001:00027850       ??$_Copy_memmove@PEAU_ccd_vec3_t@@PEAU1@@std@@YAPEAU_ccd_vec3_t@@PEAU1@00@Z 0000000180028850 f i collisioncodegen_api.obj
 0001:000278f0       ??$_Copy_memmove@PEAU_idx_vec3_t@shared_robotics@@PEAU12@@std@@YAPEAU_idx_vec3_t@shared_robotics@@PEAU12@00@Z 00000001800288f0 f i collisioncodegen_api.obj
 0001:00027990       ??$_Destroy_in_place@PEAD@std@@YAXAEAPEAD@Z 0000000180028990 f i collisioncodegen_api.obj
 0001:000279a0       ??$_Emplace_back@AEAU_ccd_vec3_t@@@?$_Uninitialized_backout_al@V?$allocator@U_ccd_vec3_t@@@std@@@std@@QEAAXAEAU_ccd_vec3_t@@@Z 00000001800289a0 f i collisioncodegen_api.obj
 0001:00027a00       ??$_Emplace_back@AEAU_idx_vec3_t@shared_robotics@@@?$_Uninitialized_backout_al@V?$allocator@U_idx_vec3_t@shared_robotics@@@std@@@std@@QEAAXAEAU_idx_vec3_t@shared_robotics@@@Z 0000000180028a00 f i collisioncodegen_api.obj
 0001:00027a60       ??$_Emplace_back@AEAV?$vector@_KV?$allocator@_K@std@@@std@@@?$_Uninitialized_backout_al@V?$allocator@V?$vector@_KV?$allocator@_K@std@@@std@@@std@@@std@@QEAAXAEAV?$vector@_KV?$allocator@_K@std@@@1@@Z 0000000180028a60 f i collisioncodegen_api.obj
 0001:00027ac0       ??$_Emplace_back@AEA_K@?$_Uninitialized_backout_al@V?$allocator@_K@std@@@std@@QEAAXAEA_K@Z 0000000180028ac0 f i collisioncodegen_api.obj
 0001:00027b20       ??$_Emplace_back@U_ccd_vec3_t@@@?$_Uninitialized_backout_al@V?$allocator@U_ccd_vec3_t@@@std@@@std@@QEAAX$$QEAU_ccd_vec3_t@@@Z 0000000180028b20 f i collisioncodegen_api.obj
 0001:00027b80       ??$_Emplace_back_with_unused_capacity@AEBU_ccd_vec3_t@@@?$vector@U_ccd_vec3_t@@V?$allocator@U_ccd_vec3_t@@@std@@@std@@AEAAAEAU_ccd_vec3_t@@AEBU2@@Z 0000000180028b80 f i collisioncodegen_api.obj
 0001:00027c10       ??$_Emplace_one_at_back@AEBU_ccd_vec3_t@@@?$vector@U_ccd_vec3_t@@V?$allocator@U_ccd_vec3_t@@@std@@@std@@AEAAAEAU_ccd_vec3_t@@AEBU2@@Z 0000000180028c10 f i collisioncodegen_api.obj
 0001:00027c90       ??$_Emplace_reallocate@AEBU_ccd_vec3_t@@@?$vector@U_ccd_vec3_t@@V?$allocator@U_ccd_vec3_t@@@std@@@std@@AEAAPEAU_ccd_vec3_t@@QEAU2@AEBU2@@Z 0000000180028c90 f i collisioncodegen_api.obj
 0001:00027eb0       ??$_Get_size_of_n@$00@std@@YA_K_K@Z 0000000180028eb0 f i collisioncodegen_api.obj
 0001:00027ed0       ??$_Get_unwrapped@AEBQEAU_ccd_vec3_t@@@std@@YA?A_TAEBQEAU_ccd_vec3_t@@@Z 0000000180028ed0 f i collisioncodegen_api.obj
 0001:00027ee0       ??$_Get_unwrapped@PEAU_ccd_vec3_t@@@std@@YA?A_T$$QEAPEAU_ccd_vec3_t@@@Z 0000000180028ee0 f i collisioncodegen_api.obj
 0001:00027ef0       ??$_Get_unwrapped@PEAU_idx_vec3_t@shared_robotics@@@std@@YA?A_T$$QEAPEAU_idx_vec3_t@shared_robotics@@@Z 0000000180028ef0 f i collisioncodegen_api.obj
 0001:00027f00       ??$_Get_unwrapped@PEAV?$vector@_KV?$allocator@_K@std@@@std@@@std@@YA?A_T$$QEAPEAV?$vector@_KV?$allocator@_K@std@@@0@@Z 0000000180028f00 f i collisioncodegen_api.obj
 0001:00027f10       ??$_Get_unwrapped@PEA_K@std@@YA?A_T$$QEAPEA_K@Z 0000000180028f10 f i collisioncodegen_api.obj
 0001:00027f20       ??$_To_address@PEAU_ccd_vec3_t@@@std@@YA?A_PAEBQEAU_ccd_vec3_t@@@Z 0000000180028f20 f i collisioncodegen_api.obj
 0001:00027f30       ??$_To_address@PEAU_idx_vec3_t@shared_robotics@@@std@@YA?A_PAEBQEAU_idx_vec3_t@shared_robotics@@@Z 0000000180028f30 f i collisioncodegen_api.obj
 0001:00027f40       ??$_Unfancy@D@std@@YAPEADPEAD@Z 0000000180028f40 f i collisioncodegen_api.obj
 0001:00027f50       ??$_Unfancy@U_ccd_vec3_t@@@std@@YAPEAU_ccd_vec3_t@@PEAU1@@Z 0000000180028f50 f i collisioncodegen_api.obj
 0001:00027f60       ??$_Unfancy@U_idx_vec3_t@shared_robotics@@@std@@YAPEAU_idx_vec3_t@shared_robotics@@PEAU12@@Z 0000000180028f60 f i collisioncodegen_api.obj
 0001:00027f70       ??$_Uninitialized_copy@PEAU_ccd_vec3_t@@PEAU1@V?$allocator@U_ccd_vec3_t@@@std@@@std@@YAPEAU_ccd_vec3_t@@PEAU1@00AEAV?$allocator@U_ccd_vec3_t@@@0@@Z 0000000180028f70 f i collisioncodegen_api.obj
 0001:000280b0       ??$_Uninitialized_copy@PEAU_idx_vec3_t@shared_robotics@@PEAU12@V?$allocator@U_idx_vec3_t@shared_robotics@@@std@@@std@@YAPEAU_idx_vec3_t@shared_robotics@@PEAU12@00AEAV?$allocator@U_idx_vec3_t@shared_robotics@@@0@@Z 00000001800290b0 f i collisioncodegen_api.obj
 0001:000281f0       ??$_Uninitialized_copy@PEAV?$vector@_KV?$allocator@_K@std@@@std@@PEAV12@V?$allocator@V?$vector@_KV?$allocator@_K@std@@@std@@@2@@std@@YAPEAV?$vector@_KV?$allocator@_K@std@@@0@PEAV10@00AEAV?$allocator@V?$vector@_KV?$allocator@_K@std@@@std@@@0@@Z 00000001800291f0 f i collisioncodegen_api.obj
 0001:000282b0       ??$_Uninitialized_copy@PEA_KPEA_KV?$allocator@_K@std@@@std@@YAPEA_KPEA_K00AEAV?$allocator@_K@0@@Z 00000001800292b0 f i collisioncodegen_api.obj
 0001:000283e0       ??$_Uninitialized_move@PEAU_ccd_vec3_t@@V?$allocator@U_ccd_vec3_t@@@std@@@std@@YAPEAU_ccd_vec3_t@@QEAU1@0PEAU1@AEAV?$allocator@U_ccd_vec3_t@@@0@@Z 00000001800293e0 f i collisioncodegen_api.obj
 0001:000284d0       ??$addressof@PEAD@std@@YAPEAPEADAEAPEAD@Z 00000001800294d0 f i collisioncodegen_api.obj
 0001:000284e0       ??$addressof@U_ccd_vec3_t@@@std@@YAPEAU_ccd_vec3_t@@AEAU1@@Z 00000001800294e0 f i collisioncodegen_api.obj
 0001:000284f0       ??$construct@U_ccd_vec3_t@@AEAU1@@?$_Default_allocator_traits@V?$allocator@U_ccd_vec3_t@@@std@@@std@@SAXAEAV?$allocator@U_ccd_vec3_t@@@1@QEAU_ccd_vec3_t@@AEAU3@@Z 00000001800294f0 f i collisioncodegen_api.obj
 0001:00028540       ??$construct@U_ccd_vec3_t@@AEBU1@@?$_Default_allocator_traits@V?$allocator@U_ccd_vec3_t@@@std@@@std@@SAXAEAV?$allocator@U_ccd_vec3_t@@@1@QEAU_ccd_vec3_t@@AEBU3@@Z 0000000180029540 f i collisioncodegen_api.obj
 0001:00028590       ??$construct@U_ccd_vec3_t@@U1@@?$_Default_allocator_traits@V?$allocator@U_ccd_vec3_t@@@std@@@std@@SAXAEAV?$allocator@U_ccd_vec3_t@@@1@QEAU_ccd_vec3_t@@$$QEAU3@@Z 0000000180029590 f i collisioncodegen_api.obj
 0001:000285e0       ??$construct@U_idx_vec3_t@shared_robotics@@AEAU12@@?$_Default_allocator_traits@V?$allocator@U_idx_vec3_t@shared_robotics@@@std@@@std@@SAXAEAV?$allocator@U_idx_vec3_t@shared_robotics@@@1@QEAU_idx_vec3_t@shared_robotics@@AEAU34@@Z 00000001800295e0 f i collisioncodegen_api.obj
 0001:00028630       ??$construct@V?$vector@_KV?$allocator@_K@std@@@std@@AEAV12@@?$_Default_allocator_traits@V?$allocator@V?$vector@_KV?$allocator@_K@std@@@std@@@std@@@std@@SAXAEAV?$allocator@V?$vector@_KV?$allocator@_K@std@@@std@@@1@QEAV?$vector@_KV?$allocator@_K@std@@@1@AEAV31@@Z 0000000180029630 f i collisioncodegen_api.obj
 0001:00028680       ??$construct@_KAEA_K@?$_Default_allocator_traits@V?$allocator@_K@std@@@std@@SAXAEAV?$allocator@_K@1@QEA_KAEA_K@Z 0000000180029680 f i collisioncodegen_api.obj
 0001:000286d0       ??$forward@AEAU_ccd_vec3_t@@@std@@YAAEAU_ccd_vec3_t@@AEAU1@@Z 00000001800296d0 f i collisioncodegen_api.obj
 0001:000286e0       ??$forward@AEAU_idx_vec3_t@shared_robotics@@@std@@YAAEAU_idx_vec3_t@shared_robotics@@AEAU12@@Z 00000001800296e0 f i collisioncodegen_api.obj
 0001:000286f0       ??$forward@AEAV?$vector@_KV?$allocator@_K@std@@@std@@@std@@YAAEAV?$vector@_KV?$allocator@_K@std@@@0@AEAV10@@Z 00000001800296f0 f i collisioncodegen_api.obj
 0001:00028700       ??$forward@AEA_K@std@@YAAEA_KAEA_K@Z 0000000180029700 f i collisioncodegen_api.obj
 0001:00028710       ??$forward@AEBQEAD@std@@YAAEBQEADAEBQEAD@Z 0000000180029710 f i collisioncodegen_api.obj
 0001:00028720       ??$forward@AEBQEAU_ccd_vec3_t@@@std@@YAAEBQEAU_ccd_vec3_t@@AEBQEAU1@@Z 0000000180029720 f i collisioncodegen_api.obj
 0001:00028730       ??$forward@AEBQEAU_idx_vec3_t@shared_robotics@@@std@@YAAEBQEAU_idx_vec3_t@shared_robotics@@AEBQEAU12@@Z 0000000180029730 f i collisioncodegen_api.obj
 0001:00028740       ??$forward@AEBQEAV?$vector@_KV?$allocator@_K@std@@@std@@@std@@YAAEBQEAV?$vector@_KV?$allocator@_K@std@@@0@AEBQEAV10@@Z 0000000180029740 f i collisioncodegen_api.obj
 0001:00028750       ??$forward@AEBU_ccd_vec3_t@@@std@@YAAEBU_ccd_vec3_t@@AEBU1@@Z 0000000180029750 f i collisioncodegen_api.obj
 0001:00028760       ??$forward@U_ccd_vec3_t@@@std@@YA$$QEAU_ccd_vec3_t@@AEAU1@@Z 0000000180029760 f i collisioncodegen_api.obj
 0001:00028770       ??$forward@V?$allocator@U_ccd_vec3_t@@@std@@@std@@YA$$QEAV?$allocator@U_ccd_vec3_t@@@0@AEAV10@@Z 0000000180029770 f i collisioncodegen_api.obj
 0001:00028780       ??$forward@V?$allocator@U_idx_vec3_t@shared_robotics@@@std@@@std@@YA$$QEAV?$allocator@U_idx_vec3_t@shared_robotics@@@0@AEAV10@@Z 0000000180029780 f i collisioncodegen_api.obj
 0001:00028790       ??$forward@V?$allocator@V?$vector@_KV?$allocator@_K@std@@@std@@@std@@@std@@YA$$QEAV?$allocator@V?$vector@_KV?$allocator@_K@std@@@std@@@0@AEAV10@@Z 0000000180029790 f i collisioncodegen_api.obj
 0001:000287a0       ??$max@_K@std@@YAAEB_KAEB_K0@Z 00000001800297a0 f i collisioncodegen_api.obj
 0001:000287f0       ??$move@AEAPEAU_ccd_vec3_t@@@std@@YA$$QEAPEAU_ccd_vec3_t@@AEAPEAU1@@Z 00000001800297f0 f i collisioncodegen_api.obj
 0001:00028800       ??$move@AEAPEAU_idx_vec3_t@shared_robotics@@@std@@YA$$QEAPEAU_idx_vec3_t@shared_robotics@@AEAPEAU12@@Z 0000000180029800 f i collisioncodegen_api.obj
 0001:00028810       ??$move@AEAPEAV?$vector@_KV?$allocator@_K@std@@@std@@@std@@YA$$QEAPEAV?$vector@_KV?$allocator@_K@std@@@0@AEAPEAV10@@Z 0000000180029810 f i collisioncodegen_api.obj
 0001:00028820       ??$move@AEAPEA_K@std@@YA$$QEAPEA_KAEAPEA_K@Z 0000000180029820 f i collisioncodegen_api.obj
 0001:00028830       ??$move@AEAU_ccd_vec3_t@@@std@@YA$$QEAU_ccd_vec3_t@@AEAU1@@Z 0000000180029830 f i collisioncodegen_api.obj
 0001:00028840       ??0?$_String_val@U?$_Simple_types@D@std@@@std@@QEAA@XZ 0000000180029840 f i collisioncodegen_api.obj
 0001:00028880       ??0?$_Uninitialized_backout_al@V?$allocator@U_ccd_vec3_t@@@std@@@std@@QEAA@PEAU_ccd_vec3_t@@AEAV?$allocator@U_ccd_vec3_t@@@1@@Z 0000000180029880 f i collisioncodegen_api.obj
 0001:000288c0       ??0?$_Uninitialized_backout_al@V?$allocator@U_idx_vec3_t@shared_robotics@@@std@@@std@@QEAA@PEAU_idx_vec3_t@shared_robotics@@AEAV?$allocator@U_idx_vec3_t@shared_robotics@@@1@@Z 00000001800298c0 f i collisioncodegen_api.obj
 0001:00028900       ??0?$_Vector_val@U?$_Simple_types@U_ccd_vec3_t@@@std@@@std@@QEAA@XZ 0000000180029900 f i collisioncodegen_api.obj
 0001:00028940       ??0?$_Vector_val@U?$_Simple_types@U_idx_vec3_t@shared_robotics@@@std@@@std@@QEAA@XZ 0000000180029940 f i collisioncodegen_api.obj
 0001:00028980       ??0?$_Vector_val@U?$_Simple_types@V?$vector@_KV?$allocator@_K@std@@@std@@@std@@@std@@QEAA@XZ 0000000180029980 f i collisioncodegen_api.obj
 0001:000289c0       ??0?$allocator@D@std@@QEAA@XZ 00000001800299c0 f i collisioncodegen_api.obj
 0001:000289d0       ??0?$allocator@U_ccd_vec3_t@@@std@@QEAA@XZ 00000001800299d0 f i collisioncodegen_api.obj
 0001:000289e0       ??0?$allocator@U_idx_vec3_t@shared_robotics@@@std@@QEAA@XZ 00000001800299e0 f i collisioncodegen_api.obj
 0001:000289f0       ??0?$allocator@V?$vector@_KV?$allocator@_K@std@@@std@@@std@@QEAA@XZ 00000001800299f0 f i collisioncodegen_api.obj
 0001:00028a00       ??0?$basic_string@DU?$char_traits@D@std@@V?$allocator@D@2@@std@@QEAA@QEBD@Z 0000000180029a00 f i collisioncodegen_api.obj
 0001:00028a50       ??0?$vector@U_ccd_vec3_t@@V?$allocator@U_ccd_vec3_t@@@std@@@std@@QEAA@AEBV01@@Z 0000000180029a50 f i collisioncodegen_api.obj
 0001:00028af0       ??0?$vector@U_ccd_vec3_t@@V?$allocator@U_ccd_vec3_t@@@std@@@std@@QEAA@XZ 0000000180029af0 f i collisioncodegen_api.obj
 0001:00028b30       ??0?$vector@U_idx_vec3_t@shared_robotics@@V?$allocator@U_idx_vec3_t@shared_robotics@@@std@@@std@@QEAA@AEBV01@@Z 0000000180029b30 f i collisioncodegen_api.obj
 0001:00028bd0       ??0?$vector@U_idx_vec3_t@shared_robotics@@V?$allocator@U_idx_vec3_t@shared_robotics@@@std@@@std@@QEAA@XZ 0000000180029bd0 f i collisioncodegen_api.obj
 0001:00028c10       ??0?$vector@V?$vector@_KV?$allocator@_K@std@@@std@@V?$allocator@V?$vector@_KV?$allocator@_K@std@@@std@@@2@@std@@QEAA@AEBV01@@Z 0000000180029c10 f i collisioncodegen_api.obj
 0001:00028cb0       ??0?$vector@V?$vector@_KV?$allocator@_K@std@@@std@@V?$allocator@V?$vector@_KV?$allocator@_K@std@@@std@@@2@@std@@QEAA@XZ 0000000180029cb0 f i collisioncodegen_api.obj
 0001:00028cf0       ??0?$vector@_KV?$allocator@_K@std@@@std@@QEAA@AEBV01@@Z 0000000180029cf0 f i collisioncodegen_api.obj
 0001:00028d80       ??0CollisionGeometry@shared_robotics@@QEAA@AEBV01@@Z 0000000180029d80 f i collisioncodegen_api.obj
 0001:00028ee0       ??0CollisionGeometry@shared_robotics@@QEAA@N@Z 0000000180029ee0 f i collisioncodegen_api.obj
 0001:00028f70       ??0CollisionGeometry@shared_robotics@@QEAA@NN@Z 0000000180029f70 f i collisioncodegen_api.obj
 0001:00029010       ??0CollisionGeometry@shared_robotics@@QEAA@NNN@Z 000000018002a010 f i collisioncodegen_api.obj
 0001:000290c0       ??0CollisionGeometry@shared_robotics@@QEAA@PEANH_N@Z 000000018002a0c0 f i collisioncodegen_api.obj
 0001:000292b0       ??0_Bxty@?$_String_val@U?$_Simple_types@D@std@@@std@@QEAA@XZ 000000018002a2b0 f i collisioncodegen_api.obj
 0001:000292d0       ??0_Fake_proxy_ptr_impl@std@@QEAA@AEBU_Fake_allocator@1@AEBU_Container_base0@1@@Z 000000018002a2d0 f i collisioncodegen_api.obj
 0001:000292f0       ??1?$_Compressed_pair@V?$allocator@D@std@@V?$_String_val@U?$_Simple_types@D@std@@@2@$00@std@@QEAA@XZ 000000018002a2f0 f i collisioncodegen_api.obj
 0001:00029310       ??1?$_String_val@U?$_Simple_types@D@std@@@std@@QEAA@XZ 000000018002a310 f i collisioncodegen_api.obj
 0001:00029330       ??1?$_Tidy_guard@V?$vector@U_ccd_vec3_t@@V?$allocator@U_ccd_vec3_t@@@std@@@std@@@std@@QEAA@XZ 000000018002a330 f i collisioncodegen_api.obj
 0001:00029360       ??1?$_Tidy_guard@V?$vector@U_idx_vec3_t@shared_robotics@@V?$allocator@U_idx_vec3_t@shared_robotics@@@std@@@std@@@std@@QEAA@XZ 000000018002a360 f i collisioncodegen_api.obj
 0001:00029390       ??1?$_Tidy_guard@V?$vector@V?$vector@_KV?$allocator@_K@std@@@std@@V?$allocator@V?$vector@_KV?$allocator@_K@std@@@std@@@2@@std@@@std@@QEAA@XZ 000000018002a390 f i collisioncodegen_api.obj
 0001:000293c0       ??1?$_Tidy_guard@V?$vector@_KV?$allocator@_K@std@@@std@@@std@@QEAA@XZ 000000018002a3c0 f i collisioncodegen_api.obj
 0001:000293f0       ??1?$_Uninitialized_backout_al@V?$allocator@U_ccd_vec3_t@@@std@@@std@@QEAA@XZ 000000018002a3f0 f i collisioncodegen_api.obj
 0001:00029420       ??1?$_Uninitialized_backout_al@V?$allocator@U_idx_vec3_t@shared_robotics@@@std@@@std@@QEAA@XZ 000000018002a420 f i collisioncodegen_api.obj
 0001:00029450       ??1?$basic_string@DU?$char_traits@D@std@@V?$allocator@D@2@@std@@QEAA@XZ 000000018002a450 f i collisioncodegen_api.obj
 0001:00029480       ??1_Bxty@?$_String_val@U?$_Simple_types@D@std@@@std@@QEAA@XZ 000000018002a480 f i collisioncodegen_api.obj
 0001:00029490       ??A?$vector@U_ccd_vec3_t@@V?$allocator@U_ccd_vec3_t@@@std@@@std@@QEAAAEAU_ccd_vec3_t@@_K@Z 000000018002a490 f i collisioncodegen_api.obj
 0001:000294c0       ?_Activate_SSO_buffer@?$_String_val@U?$_Simple_types@D@std@@@std@@QEAAXXZ 000000018002a4c0 f i collisioncodegen_api.obj
 0001:000294d0       ?_Buy_nonzero@?$vector@U_ccd_vec3_t@@V?$allocator@U_ccd_vec3_t@@@std@@@std@@AEAAX_K@Z 000000018002a4d0 f i collisioncodegen_api.obj
 0001:00029510       ?_Buy_nonzero@?$vector@U_idx_vec3_t@shared_robotics@@V?$allocator@U_idx_vec3_t@shared_robotics@@@std@@@std@@AEAAX_K@Z 000000018002a510 f i collisioncodegen_api.obj
 0001:00029550       ?_Buy_nonzero@?$vector@V?$vector@_KV?$allocator@_K@std@@@std@@V?$allocator@V?$vector@_KV?$allocator@_K@std@@@std@@@2@@std@@AEAAX_K@Z 000000018002a550 f i collisioncodegen_api.obj
 0001:00029590       ?_Buy_nonzero@?$vector@_KV?$allocator@_K@std@@@std@@AEAAX_K@Z 000000018002a590 f i collisioncodegen_api.obj
 0001:000295d0       ?_Buy_raw@?$vector@U_ccd_vec3_t@@V?$allocator@U_ccd_vec3_t@@@std@@@std@@AEAAX_K@Z 000000018002a5d0 f i collisioncodegen_api.obj
 0001:00029670       ?_Buy_raw@?$vector@U_idx_vec3_t@shared_robotics@@V?$allocator@U_idx_vec3_t@shared_robotics@@@std@@@std@@AEAAX_K@Z 000000018002a670 f i collisioncodegen_api.obj
 0001:00029710       ?_Buy_raw@?$vector@V?$vector@_KV?$allocator@_K@std@@@std@@V?$allocator@V?$vector@_KV?$allocator@_K@std@@@std@@@2@@std@@AEAAX_K@Z 000000018002a710 f i collisioncodegen_api.obj
 0001:000297b0       ?_Buy_raw@?$vector@_KV?$allocator@_K@std@@@std@@AEAAX_K@Z 000000018002a7b0 f i collisioncodegen_api.obj
 0001:00029840       ?_Calculate_growth@?$basic_string@DU?$char_traits@D@std@@V?$allocator@D@2@@std@@AEBA_K_K@Z 000000018002a840 f i collisioncodegen_api.obj
 0001:00029880       ?_Calculate_growth@?$basic_string@DU?$char_traits@D@std@@V?$allocator@D@2@@std@@CA_K_K00@Z 000000018002a880 f i collisioncodegen_api.obj
 0001:00029920       ?_Calculate_growth@?$vector@U_ccd_vec3_t@@V?$allocator@U_ccd_vec3_t@@@std@@@std@@AEBA_K_K@Z 000000018002a920 f i collisioncodegen_api.obj
 0001:000299b0       ?_Change_array@?$vector@U_ccd_vec3_t@@V?$allocator@U_ccd_vec3_t@@@std@@@std@@AEAAXQEAU_ccd_vec3_t@@_K1@Z 000000018002a9b0 f i collisioncodegen_api.obj
 0001:00029ab0       ?_Get_first@?$_Compressed_pair@V?$allocator@D@std@@V?$_String_val@U?$_Simple_types@D@std@@@2@$00@std@@QEAAAEAV?$allocator@D@2@XZ 000000018002aab0 f i collisioncodegen_api.obj
 0001:00029ac0       ?_Get_first@?$_Compressed_pair@V?$allocator@D@std@@V?$_String_val@U?$_Simple_types@D@std@@@2@$00@std@@QEBAAEBV?$allocator@D@2@XZ 000000018002aac0 f i collisioncodegen_api.obj
 0001:00029ad0       ?_Get_first@?$_Compressed_pair@V?$allocator@U_ccd_vec3_t@@@std@@V?$_Vector_val@U?$_Simple_types@U_ccd_vec3_t@@@std@@@2@$00@std@@QEBAAEBV?$allocator@U_ccd_vec3_t@@@2@XZ 000000018002aad0 f i collisioncodegen_api.obj
 0001:00029ae0       ?_Get_first@?$_Compressed_pair@V?$allocator@U_idx_vec3_t@shared_robotics@@@std@@V?$_Vector_val@U?$_Simple_types@U_idx_vec3_t@shared_robotics@@@std@@@2@$00@std@@QEBAAEBV?$allocator@U_idx_vec3_t@shared_robotics@@@2@XZ 000000018002aae0 f i collisioncodegen_api.obj
 0001:00029af0       ?_Getal@?$basic_string@DU?$char_traits@D@std@@V?$allocator@D@2@@std@@AEAAAEAV?$allocator@D@2@XZ 000000018002aaf0 f i collisioncodegen_api.obj
 0001:00029b10       ?_Getal@?$basic_string@DU?$char_traits@D@std@@V?$allocator@D@2@@std@@AEBAAEBV?$allocator@D@2@XZ 000000018002ab10 f i collisioncodegen_api.obj
 0001:00029b30       ?_Getal@?$vector@U_ccd_vec3_t@@V?$allocator@U_ccd_vec3_t@@@std@@@std@@AEBAAEBV?$allocator@U_ccd_vec3_t@@@2@XZ 000000018002ab30 f i collisioncodegen_api.obj
 0001:00029b50       ?_Getal@?$vector@U_idx_vec3_t@shared_robotics@@V?$allocator@U_idx_vec3_t@shared_robotics@@@std@@@std@@AEBAAEBV?$allocator@U_idx_vec3_t@shared_robotics@@@2@XZ 000000018002ab50 f i collisioncodegen_api.obj
 0001:00029b70       ?_Large_string_engaged@?$_String_val@U?$_Simple_types@D@std@@@std@@QEBA_NXZ 000000018002ab70 f i collisioncodegen_api.obj
 0001:00029ba0       ?_Myptr@?$_String_val@U?$_Simple_types@D@std@@@std@@QEBAPEBDXZ 000000018002aba0 f i collisioncodegen_api.obj
 0001:00029be0       ?_Orphan_range@?$vector@U_ccd_vec3_t@@V?$allocator@U_ccd_vec3_t@@@std@@@std@@AEBAXPEAU_ccd_vec3_t@@0@Z 000000018002abe0 f i collisioncodegen_api.obj
 0001:00029bf0       ?_Release@?$_Uninitialized_backout_al@V?$allocator@U_ccd_vec3_t@@@std@@@std@@QEAAPEAU_ccd_vec3_t@@XZ 000000018002abf0 f i collisioncodegen_api.obj
 0001:00029c10       ?_Release@?$_Uninitialized_backout_al@V?$allocator@U_idx_vec3_t@shared_robotics@@@std@@@std@@QEAAPEAU_idx_vec3_t@shared_robotics@@XZ 000000018002ac10 f i collisioncodegen_api.obj
 0001:00029c30       ?_Release@_Fake_proxy_ptr_impl@std@@QEAAXXZ 000000018002ac30 f i collisioncodegen_api.obj
 0001:00029c40       ?_Start_element_lifetimes@?$basic_string@DU?$char_traits@D@std@@V?$allocator@D@2@@std@@CAXQEAD_K@Z 000000018002ac40 f i collisioncodegen_api.obj
 0001:00029c50       ?_Tidy_deallocate@?$basic_string@DU?$char_traits@D@std@@V?$allocator@D@2@@std@@AEAAXXZ 000000018002ac50 f i collisioncodegen_api.obj
 0001:00029d20       ?_Xlen_string@std@@YAXXZ   000000018002ad20 f i collisioncodegen_api.obj
 0001:00029d40       ?_Xlength@?$vector@U_ccd_vec3_t@@V?$allocator@U_ccd_vec3_t@@@std@@@std@@CAXXZ 000000018002ad40 f i collisioncodegen_api.obj
 0001:00029d60       ?_Xlength@?$vector@U_idx_vec3_t@shared_robotics@@V?$allocator@U_idx_vec3_t@shared_robotics@@@std@@@std@@CAXXZ 000000018002ad60 f i collisioncodegen_api.obj
 0001:00029d80       ?allocate@?$allocator@D@std@@QEAAPEAD_K@Z 000000018002ad80 f i collisioncodegen_api.obj
 0001:00029db0       ?allocate@?$allocator@U_ccd_vec3_t@@@std@@QEAAPEAU_ccd_vec3_t@@_K@Z 000000018002adb0 f i collisioncodegen_api.obj
 0001:00029de0       ?allocate@?$allocator@U_idx_vec3_t@shared_robotics@@@std@@QEAAPEAU_idx_vec3_t@shared_robotics@@_K@Z 000000018002ade0 f i collisioncodegen_api.obj
 0001:00029e10       ?assign@?$_Narrow_char_traits@DH@std@@SAXAEADAEBD@Z 000000018002ae10 f i collisioncodegen_api.obj
 0001:00029e30       ?c_str@?$basic_string@DU?$char_traits@D@std@@V?$allocator@D@2@@std@@QEBAPEBDXZ 000000018002ae30 f i collisioncodegen_api.obj
 0001:00029e50       ?capacity@?$vector@U_ccd_vec3_t@@V?$allocator@U_ccd_vec3_t@@@std@@@std@@QEBA_KXZ 000000018002ae50 f i collisioncodegen_api.obj
 0001:00029e90       ?copy@?$_Char_traits@DH@std@@SAPEADQEADQEBD_K@Z 000000018002ae90 f i collisioncodegen_api.obj
 0001:00029ed0       ?deallocate@?$allocator@D@std@@QEAAXQEAD_K@Z 000000018002aed0 f i collisioncodegen_api.obj
 0001:00029f00       ?getHeight@CollisionGeometry@shared_robotics@@QEBANXZ 000000018002af00 f i collisioncodegen_api.obj
 0001:00029f10       ?getNumVertices@CollisionGeometry@shared_robotics@@QEBA_KXZ 000000018002af10 f i collisioncodegen_api.obj
 0001:00029f20       ?getRadius@CollisionGeometry@shared_robotics@@QEBANXZ 000000018002af20 f i collisioncodegen_api.obj
 0001:00029f30       ?getType@CollisionGeometry@shared_robotics@@QEBA?AV?$basic_string@DU?$char_traits@D@std@@V?$allocator@D@2@@std@@XZ 000000018002af30 f i collisioncodegen_api.obj
 0001:0002a060       ?getVertices@CollisionGeometry@shared_robotics@@QEBAAEBV?$vector@U_ccd_vec3_t@@V?$allocator@U_ccd_vec3_t@@@std@@@std@@XZ 000000018002b060 f i collisioncodegen_api.obj
 0001:0002a070       ?getX@CollisionGeometry@shared_robotics@@QEBANXZ 000000018002b070 f i collisioncodegen_api.obj
 0001:0002a080       ?getY@CollisionGeometry@shared_robotics@@QEBANXZ 000000018002b080 f i collisioncodegen_api.obj
 0001:0002a090       ?getZ@CollisionGeometry@shared_robotics@@QEBANXZ 000000018002b090 f i collisioncodegen_api.obj
 0001:0002a0a0       ?initializePositionAndOrientation@CollisionGeometry@shared_robotics@@AEAAXXZ 000000018002b0a0 f i collisioncodegen_api.obj
 0001:0002a130       ?length@?$basic_string@DU?$char_traits@D@std@@V?$allocator@D@2@@std@@QEBA_KXZ 000000018002b130 f i collisioncodegen_api.obj
 0001:0002a140       ?max_size@?$_Default_allocator_traits@V?$allocator@D@std@@@std@@SA_KAEBV?$allocator@D@2@@Z 000000018002b140 f i collisioncodegen_api.obj
 0001:0002a150       ?max_size@?$_Default_allocator_traits@V?$allocator@U_ccd_vec3_t@@@std@@@std@@SA_KAEBV?$allocator@U_ccd_vec3_t@@@2@@Z 000000018002b150 f i collisioncodegen_api.obj
 0001:0002a160       ?max_size@?$_Default_allocator_traits@V?$allocator@U_idx_vec3_t@shared_robotics@@@std@@@std@@SA_KAEBV?$allocator@U_idx_vec3_t@shared_robotics@@@2@@Z 000000018002b160 f i collisioncodegen_api.obj
 0001:0002a170       ?max_size@?$basic_string@DU?$char_traits@D@std@@V?$allocator@D@2@@std@@QEBA_KXZ 000000018002b170 f i collisioncodegen_api.obj
 0001:0002a1e0       ?max_size@?$vector@U_ccd_vec3_t@@V?$allocator@U_ccd_vec3_t@@@std@@@std@@QEBA_KXZ 000000018002b1e0 f i collisioncodegen_api.obj
 0001:0002a230       ?max_size@?$vector@U_idx_vec3_t@shared_robotics@@V?$allocator@U_idx_vec3_t@shared_robotics@@@std@@@std@@QEBA_KXZ 000000018002b230 f i collisioncodegen_api.obj
 0001:0002a280       ?push_back@?$vector@U_ccd_vec3_t@@V?$allocator@U_ccd_vec3_t@@@std@@@std@@QEAAXAEBU_ccd_vec3_t@@@Z 000000018002b280 f i collisioncodegen_api.obj
 0001:0002a2b0       ?select_on_container_copy_construction@?$_Default_allocator_traits@V?$allocator@U_ccd_vec3_t@@@std@@@std@@SA?AV?$allocator@U_ccd_vec3_t@@@2@AEBV32@@Z 000000018002b2b0 f i collisioncodegen_api.obj
 0001:0002a2c0       ?select_on_container_copy_construction@?$_Default_allocator_traits@V?$allocator@U_idx_vec3_t@shared_robotics@@@std@@@std@@SA?AV?$allocator@U_idx_vec3_t@shared_robotics@@@2@AEBV32@@Z 000000018002b2c0 f i collisioncodegen_api.obj
 0001:0002a2d0       ?select_on_container_copy_construction@?$_Default_allocator_traits@V?$allocator@V?$vector@_KV?$allocator@_K@std@@@std@@@std@@@std@@SA?AV?$allocator@V?$vector@_KV?$allocator@_K@std@@@std@@@2@AEBV32@@Z 000000018002b2d0 f i collisioncodegen_api.obj
 0001:0002a2e0       ?select_on_container_copy_construction@?$_Default_allocator_traits@V?$allocator@_K@std@@@std@@SA?AV?$allocator@_K@2@AEBV32@@Z 000000018002b2e0 f i collisioncodegen_api.obj
 0001:0002a2f0       ?setEnumType@CollisionGeometry@shared_robotics@@QEAAXW4Type@12@@Z 000000018002b2f0 f i collisioncodegen_api.obj
 0001:0002a310       ?size@?$vector@U_ccd_vec3_t@@V?$allocator@U_ccd_vec3_t@@@std@@@std@@QEBA_KXZ 000000018002b310 f i collisioncodegen_api.obj
 0001:0002aa80       ?ccdDistance@shared_robotics@@YANPEBX0PEBU_ccd_t@@PEAU_ccd_vec3_t@@2@Z 000000018002ba80 f   collisioncodegen_ccdExtensions.obj
 0001:0002ad60       ?distanceToOrigin@shared_robotics@@YANPEAU_ccd_simplex_t@@AEAPEAU_ccd_vec3_t@@@Z 000000018002bd60 f   collisioncodegen_ccdExtensions.obj
 0001:0002b380       ?extractWitnessPoints@shared_robotics@@YAXPEBU_ccd_simplex_t@@PEBU_ccd_vec3_t@@PEAU3@2@Z 000000018002c380 f   collisioncodegen_ccdExtensions.obj
 0001:0002b440       ?interpolateBetweenTwoSupportPoints@shared_robotics@@YAXAEAPEBU_ccd_simplex_t@@AEAPEBU_ccd_vec3_t@@AEAPEAU3@2@Z 000000018002c440 f   collisioncodegen_ccdExtensions.obj
 0001:0002b720       ?interpolateAmongThreeSupportPoints@shared_robotics@@YAXAEAPEBU_ccd_simplex_t@@AEAPEBU_ccd_vec3_t@@AEAPEAU3@2@Z 000000018002c720 f   collisioncodegen_ccdExtensions.obj
 0001:0002bd50       ?barycentricCoordinates@@YAXPEBU_ccd_vec3_t@@000PEAU1@@Z 000000018002cd50 f   collisioncodegen_ccdExtensions.obj
 0001:0002bf20       ?epsilon@?$numeric_limits@N@std@@SANXZ 000000018002cf20 f i collisioncodegen_ccdExtensions.obj
 0001:0002c030       intersect                  000000018002d030 f   collisioncodegen_checkCollision.obj
 0001:0002c380       updatePose                 000000018002d380 f   collisioncodegen_checkCollision.obj
 0001:0002c496       mxSetCell_800              000000018002d496 f   libmx:libmx.dll
 0001:0002c49c       mxSetFieldByNumber_800     000000018002d49c f   libmx:libmx.dll
 0001:0002c4a2       mxCreateString_800         000000018002d4a2 f   libmx:libmx.dll
 0001:0002c4a8       mxCreateCellMatrix_800     000000018002d4a8 f   libmx:libmx.dll
 0001:0002c4ae       mxCreateStructMatrix_800   000000018002d4ae f   libmx:libmx.dll
 0001:0002c4b4       mxGetNaN_800               000000018002d4b4 f   libmx:libmx.dll
 0001:0002c4ba       mxCalloc_800               000000018002d4ba f   libmx:libmx.dll
 0001:0002c4c0       mxGetM_800                 000000018002d4c0 f   libmx:libmx.dll
 0001:0002c4c6       mxGetClassID_800           000000018002d4c6 f   libmx:libmx.dll
 0001:0002c4cc       mxGetData_800              000000018002d4cc f   libmx:libmx.dll
 0001:0002c4d2       mxIsNumeric_800            000000018002d4d2 f   libmx:libmx.dll
 0001:0002c4d8       mxIsChar_800               000000018002d4d8 f   libmx:libmx.dll
 0001:0002c4de       mxIsComplex_800            000000018002d4de f   libmx:libmx.dll
 0001:0002c4e4       mxGetN_800                 000000018002d4e4 f   libmx:libmx.dll
 0001:0002c4ea       mxGetPr_800                000000018002d4ea f   libmx:libmx.dll
 0001:0002c4f0       mxSetField_800             000000018002d4f0 f   libmx:libmx.dll
 0001:0002c4f6       mxCreateNumericMatrix_800  000000018002d4f6 f   libmx:libmx.dll
 0001:0002c4fc       mxCreateDoubleMatrix_800   000000018002d4fc f   libmx:libmx.dll
 0001:0002c502       mxCreateDoubleScalar_800   000000018002d502 f   libmx:libmx.dll
 0001:0002c508       mxGetString_800            000000018002d508 f   libmx:libmx.dll
 0001:0002c50e       mexWarnMsgTxt_800          000000018002d50e f   libmex:libmex.dll
 0001:0002c514       mexPrintf_800              000000018002d514 f   libmex:libmex.dll
 0001:0002c51a       mexCallMATLAB_800          000000018002d51a f   libmex:libmex.dll
 0001:0002c520       mexUnlock_800              000000018002d520 f   libmex:libmex.dll
 0001:0002c526       mexIsLocked_800            000000018002d526 f   libmex:libmex.dll
 0001:0002c52c       muDoubleScalarFloor        000000018002d52c f   libmwmathutil:libmwmathutil.dll
 0001:0002c532       muDoubleScalarCos          000000018002d532 f   libmwmathutil:libmwmathutil.dll
 0001:0002c538       muDoubleScalarSin          000000018002d538 f   libmwmathutil:libmwmathutil.dll
 0001:0002c53e       muDoubleScalarSqrt         000000018002d53e f   libmwmathutil:libmwmathutil.dll
 0001:0002c544       muDoubleScalarIsNaN        000000018002d544 f   libmwmathutil:libmwmathutil.dll
 0001:0002c54a       muDoubleScalarIsInf        000000018002d54a f   libmwmathutil:libmwmathutil.dll
 0001:0002c550       emlrtLicenseCheckR2022a    000000018002d550 f   libemlrt:libemlrt.dll
 0001:0002c556       emlrtAssign                000000018002d556 f   libemlrt:libemlrt.dll
 0001:0002c55c       emlrtDynamicBoundsCheckR2012b 000000018002d55c f   libemlrt:libemlrt.dll
 0001:0002c562       emlrtCreateNumericMatrix   000000018002d562 f   libemlrt:libemlrt.dll
 0001:0002c568       emlrtCreateDoubleScalar    000000018002d568 f   libemlrt:libemlrt.dll
 0001:0002c56e       emlrtCreateCharArray       000000018002d56e f   libemlrt:libemlrt.dll
 0001:0002c574       emlrtIntegerCheckR2012b    000000018002d574 f   libemlrt:libemlrt.dll
 0001:0002c57a       emlrtNonNegativeCheckR2012b 000000018002d57a f   libemlrt:libemlrt.dll
 0001:0002c580       emlrtForLoopVectorCheckR2021a 000000018002d580 f   libemlrt:libemlrt.dll
 0001:0002c586       emlrtCallMATLABR2012b      000000018002d586 f   libemlrt:libemlrt.dll
 0001:0002c58c       emlrtMallocMex             000000018002d58c f   libemlrt:libemlrt.dll
 0001:0002c592       emlrtCallocMex             000000018002d592 f   libemlrt:libemlrt.dll
 0001:0002c598       emlrtFreeMex               000000018002d598 f   libemlrt:libemlrt.dll
 0001:0002c59e       emlrtInitCharArrayR2013a   000000018002d59e f   libemlrt:libemlrt.dll
 0001:0002c5a4       emlrtSubAssignSizeCheckR2012b 000000018002d5a4 f   libemlrt:libemlrt.dll
 0001:0002c5aa       emlrtMxGetData             000000018002d5aa f   libemlrt:libemlrt.dll
 0001:0002c5b0       cgxertGetInputPortSignal   000000018002d5b0 f   libmwcgxert:libmwcgxert.dll
 0001:0002c5b6       cgxertGetOutputPortSignal  000000018002d5b6 f   libmwcgxert:libmwcgxert.dll
 0001:0002c5bc       cgxertSetSimStateCompliance 000000018002d5bc f   libmwcgxert:libmwcgxert.dll
 0001:0002c5c2       cgxertGetRuntimeInstance   000000018002d5c2 f   libmwcgxert:libmwcgxert.dll
 0001:0002c5c8       cgxertSetRuntimeInstance   000000018002d5c8 f   libmwcgxert:libmwcgxert.dll
 0001:0002c5ce       cgxertGetEMLRTCtx          000000018002d5ce f   libmwcgxert:libmwcgxert.dll
 0001:0002c5d4       cgxertSetGcb               000000018002d5d4 f   libmwcgxert:libmwcgxert.dll
 0001:0002c5da       cgxertRestoreGcb           000000018002d5da f   libmwcgxert:libmwcgxert.dll
 0001:0002c5e0       dgemm                      000000018002d5e0 f   libmwblas:libmwblas.dll
 0001:0002c5e8       __raise_securityfailure    000000018002d5e8 f   MSVCRT:gs_report.obj
 0001:0002c61c       __report_gsfailure         000000018002d61c f   MSVCRT:gs_report.obj
 0001:0002c6f0       __report_rangecheckfailure 000000018002d6f0 f   MSVCRT:gs_report.obj
 0001:0002c704       __report_securityfailure   000000018002d704 f   MSVCRT:gs_report.obj
 0001:0002c7a0       __report_securityfailureEx 000000018002d7a0 f   MSVCRT:gs_report.obj
 0001:0002c994       __GSHandlerCheck           000000018002d994 f   MSVCRT:gshandler.obj
 0001:0002c9b4       __GSHandlerCheckCommon     000000018002d9b4 f   MSVCRT:gshandler.obj
 0001:0002ca20       __security_check_cookie    000000018002da20 f   MSVCRT:amdsecgs.obj
 0001:0002ca40       ??2@YAPEAX_K@Z             000000018002da40 f   MSVCRT:new_scalar.obj
 0001:0002ca7c       ??3@YAXPEAX_K@Z            000000018002da7c f   MSVCRT:delete_scalar_size.obj
 0001:0002ca84       __GSHandlerCheck_EH4       000000018002da84 f   MSVCRT:gshandlereh4.obj
 0001:0002cb04       ??1type_info@@UEAA@XZ      000000018002db04 f   MSVCRT:std_type_info_static.obj
 0001:0002cb10       ??_Etype_info@@UEAAPEAXI@Z 000000018002db10 f i MSVCRT:std_type_info_static.obj
 0001:0002cb10       ??_Gtype_info@@UEAAPEAXI@Z 000000018002db10 f i MSVCRT:std_type_info_static.obj
 0001:0002ce78       _CRT_INIT                  000000018002de78 f   MSVCRT:dll_dllmain.obj
 0001:0002ce80       _DllMainCRTStartup         000000018002de80 f   MSVCRT:dll_dllmain.obj
 0001:0002cec0       ??0bad_alloc@std@@QEAA@XZ  000000018002dec0 f i MSVCRT:throw_bad_alloc.obj
 0001:0002cee0       ?__scrt_throw_std_bad_alloc@@YAXXZ 000000018002dee0 f   MSVCRT:throw_bad_alloc.obj
 0001:0002cf00       ?__scrt_throw_std_bad_array_new_length@@YAXXZ 000000018002df00 f   MSVCRT:throw_bad_alloc.obj
 0001:0002cf20       ??3@YAXPEAX@Z              000000018002df20 f   MSVCRT:delete_scalar.obj
 0001:0002cf94       __security_init_cookie     000000018002df94 f   MSVCRT:gs_support.obj
 0001:0002d040       DllMain                    000000018002e040 f   MSVCRT:dll_dllmain_stub.obj
 0001:0002d064       ?__scrt_initialize_type_info@@YAXXZ 000000018002e064 f   MSVCRT:tncleanup.obj
 0001:0002d074       ?__scrt_uninitialize_type_info@@YAXXZ 000000018002e074 f   MSVCRT:tncleanup.obj
 0001:0002d080       __local_stdio_scanf_options 000000018002e080 f i MSVCRT:default_local_stdio_options.obj
 0001:0002d088       __scrt_initialize_default_local_stdio_options 000000018002e088 f   MSVCRT:default_local_stdio_options.obj
 0001:0002d0a4       ?configure_argv@__scrt_narrow_argv_policy@@SAHXZ 000000018002e0a4 f i MSVCRT:utility.obj
 0001:0002d104       ?initialize_environment@__scrt_narrow_environment_policy@@SAHXZ 000000018002e104 f i MSVCRT:utility.obj
 0001:0002d13c       NtCurrentTeb               000000018002e13c f i MSVCRT:utility.obj
 0001:0002d148       __scrt_acquire_startup_lock 000000018002e148 f   MSVCRT:utility.obj
 0001:0002d184       __scrt_dllmain_after_initialize_c 000000018002e184 f   MSVCRT:utility.obj
 0001:0002d1b8       __scrt_dllmain_before_initialize_c 000000018002e1b8 f   MSVCRT:utility.obj
 0001:0002d1d0       __scrt_dllmain_crt_thread_attach 000000018002e1d0 f   MSVCRT:utility.obj
 0001:0002d1f8       __scrt_dllmain_crt_thread_detach 000000018002e1f8 f   MSVCRT:utility.obj
 0001:0002d210       __scrt_dllmain_exception_filter 000000018002e210 f   MSVCRT:utility.obj
 0001:0002d270       __scrt_dllmain_uninitialize_c 000000018002e270 f   MSVCRT:utility.obj
 0001:0002d2a0       __scrt_dllmain_uninitialize_critical 000000018002e2a0 f   MSVCRT:utility.obj
 0001:0002d2b4       __scrt_initialize_crt      000000018002e2b4 f   MSVCRT:utility.obj
 0001:0002d300       __scrt_initialize_onexit_tables 000000018002e300 f   MSVCRT:utility.obj
 0001:0002d38c       __scrt_is_nonwritable_in_current_image 000000018002e38c f   MSVCRT:utility.obj
 0001:0002d424       __scrt_release_startup_lock 000000018002e424 f   MSVCRT:utility.obj
 0001:0002d448       __scrt_uninitialize_crt    000000018002e448 f   MSVCRT:utility.obj
 0001:0002d474       _onexit                    000000018002e474 f   MSVCRT:utility.obj
 0001:0002d4b0       at_quick_exit              000000018002e4b0 f   MSVCRT:utility.obj
 0001:0002d4d0       atexit                     000000018002e4d0 f   MSVCRT:utility.obj
 0001:0002d4e8       __scrt_get_dyn_tls_init_callback 000000018002e4e8 f   MSVCRT:dyn_tls_init.obj
 0001:0002d4f0       __crt_debugger_hook        000000018002e4f0 f   MSVCRT:utility_desktop.obj
 0001:0002d4f8       __scrt_fastfail            000000018002e4f8 f   MSVCRT:utility_desktop.obj
 0001:0002d644       __scrt_get_show_window_mode 000000018002e644 f   MSVCRT:utility_desktop.obj
 0001:0002d680       __scrt_initialize_mta      000000018002e680 f   MSVCRT:utility_desktop.obj
 0001:0002d688       __scrt_initialize_winrt    000000018002e688 f   MSVCRT:utility_desktop.obj
 0001:0002d68c       __scrt_is_managed_app      000000018002e68c f   MSVCRT:utility_desktop.obj
 0001:0002d6e0       __scrt_set_unhandled_exception_filter 000000018002e6e0 f   MSVCRT:utility_desktop.obj
 0001:0002d6f0       __scrt_exe_initialize_mta  000000018002e6f0 f   MSVCRT:utility_desktop.obj
 0001:0002d6f0       __scrt_stub_for_initialize_mta 000000018002e6f0 f   MSVCRT:utility_desktop.obj
 0001:0002d6f4       __scrt_unhandled_exception_filter 000000018002e6f4 f   MSVCRT:utility_desktop.obj
 0001:0002d750       _RTC_Initialize            000000018002e750 f   MSVCRT:initsect.obj
 0001:0002d78c       _RTC_Terminate             000000018002e78c f   MSVCRT:initsect.obj
 0001:0002d7c8       _guard_check_icall_nop     000000018002e7c8 f i MSVCRT:guard_support.obj
 0001:0002d7cc       ReadNoFence64              000000018002e7cc f i MSVCRT:guard_support.obj
 0001:0002d7d0       ReadPointerNoFence         000000018002e7d0 f i MSVCRT:guard_support.obj
 0001:0002d7d4       __castguard_check_failure_debugbreak 000000018002e7d4 f i MSVCRT:guard_support.obj
 0001:0002d7f0       __castguard_check_failure_fastfail 000000018002e7f0 f i MSVCRT:guard_support.obj
 0001:0002d814       __castguard_check_failure_nop 000000018002e814 f i MSVCRT:guard_support.obj
 0001:0002d818       __castguard_check_failure_os_handled 000000018002e818 f i MSVCRT:guard_support.obj
 0001:0002d874       __castguard_check_failure_user_handled 000000018002e874 f i MSVCRT:guard_support.obj
 0001:0002d8e8       __castguard_set_user_handler 000000018002e8e8 f i MSVCRT:guard_support.obj
 0001:0002d8f4       __castguard_slow_path_check_debugbreak 000000018002e8f4 f i MSVCRT:guard_support.obj
 0001:0002d928       __castguard_slow_path_check_fastfail 000000018002e928 f i MSVCRT:guard_support.obj
 0001:0002d964       __castguard_slow_path_check_nop 000000018002e964 f i MSVCRT:guard_support.obj
 0001:0002d968       __castguard_slow_path_check_os_handled 000000018002e968 f i MSVCRT:guard_support.obj
 0001:0002d9bc       __castguard_slow_path_check_user_handled 000000018002e9bc f i MSVCRT:guard_support.obj
 0001:0002da28       _guard_icall_checks_enforced 000000018002ea28 f i MSVCRT:guard_support.obj
 0001:0002da40       _guard_rf_checks_enforced  000000018002ea40 f i MSVCRT:guard_support.obj
 0001:0002da44       __isa_available_init       000000018002ea44 f   MSVCRT:cpu_disp.obj
 0001:0002dbf0       _get_startup_argv_mode     000000018002ebf0 f   MSVCRT:argv_mode.obj
 0001:0002dbf8       __scrt_is_ucrt_dll_in_use  000000018002ebf8 f   MSVCRT:ucrt_detection.obj
 0001:0002dc10       ?_Xlength_error@std@@YAXPEBD@Z 000000018002ec10 f   msvcprt:MSVCP140.dll
 0001:0002dc16       ?uncaught_exception@std@@YA_NXZ 000000018002ec16 f   msvcprt:MSVCP140.dll
 0001:0002dc1c       ?good@ios_base@std@@QEBA_NXZ 000000018002ec1c f   msvcprt:MSVCP140.dll
 0001:0002dc22       ?flags@ios_base@std@@QEBAHXZ 000000018002ec22 f   msvcprt:MSVCP140.dll
 0001:0002dc28       ?width@ios_base@std@@QEBA_JXZ 000000018002ec28 f   msvcprt:MSVCP140.dll
 0001:0002dc2e       ?width@ios_base@std@@QEAA_J_J@Z 000000018002ec2e f   msvcprt:MSVCP140.dll
 0001:0002dc34       ?sputc@?$basic_streambuf@DU?$char_traits@D@std@@@std@@QEAAHD@Z 000000018002ec34 f   msvcprt:MSVCP140.dll
 0001:0002dc3a       ?sputn@?$basic_streambuf@DU?$char_traits@D@std@@@std@@QEAA_JPEBD_J@Z 000000018002ec3a f   msvcprt:MSVCP140.dll
 0001:0002dc40       ?setstate@?$basic_ios@DU?$char_traits@D@std@@@std@@QEAAXH_N@Z 000000018002ec40 f   msvcprt:MSVCP140.dll
 0001:0002dc46       ?tie@?$basic_ios@DU?$char_traits@D@std@@@std@@QEBAPEAV?$basic_ostream@DU?$char_traits@D@std@@@2@XZ 000000018002ec46 f   msvcprt:MSVCP140.dll
 0001:0002dc4c       ?rdbuf@?$basic_ios@DU?$char_traits@D@std@@@std@@QEBAPEAV?$basic_streambuf@DU?$char_traits@D@std@@@2@XZ 000000018002ec4c f   msvcprt:MSVCP140.dll
 0001:0002dc52       ?fill@?$basic_ios@DU?$char_traits@D@std@@@std@@QEBADXZ 000000018002ec52 f   msvcprt:MSVCP140.dll
 0001:0002dc58       ?widen@?$basic_ios@DU?$char_traits@D@std@@@std@@QEBADD@Z 000000018002ec58 f   msvcprt:MSVCP140.dll
 0001:0002dc5e       ?_Osfx@?$basic_ostream@DU?$char_traits@D@std@@@std@@QEAAXXZ 000000018002ec5e f   msvcprt:MSVCP140.dll
 0001:0002dc64       ??6?$basic_ostream@DU?$char_traits@D@std@@@std@@QEAAAEAV01@P6AAEAV01@AEAV01@@Z@Z 000000018002ec64 f   msvcprt:MSVCP140.dll
 0001:0002dc6a       ?put@?$basic_ostream@DU?$char_traits@D@std@@@std@@QEAAAEAV12@D@Z 000000018002ec6a f   msvcprt:MSVCP140.dll
 0001:0002dc70       ?flush@?$basic_ostream@DU?$char_traits@D@std@@@std@@QEAAAEAV12@XZ 000000018002ec70 f   msvcprt:MSVCP140.dll
 0001:0002dc76       RtlCaptureContext          000000018002ec76 f   kernel32:KERNEL32.dll
 0001:0002dc7c       RtlLookupFunctionEntry     000000018002ec7c f   kernel32:KERNEL32.dll
 0001:0002dc82       RtlVirtualUnwind           000000018002ec82 f   kernel32:KERNEL32.dll
 0001:0002dc88       UnhandledExceptionFilter   000000018002ec88 f   kernel32:KERNEL32.dll
 0001:0002dc8e       SetUnhandledExceptionFilter 000000018002ec8e f   kernel32:KERNEL32.dll
 0001:0002dc94       GetCurrentProcess          000000018002ec94 f   kernel32:KERNEL32.dll
 0001:0002dc9a       TerminateProcess           000000018002ec9a f   kernel32:KERNEL32.dll
 0001:0002dca0       IsProcessorFeaturePresent  000000018002eca0 f   kernel32:KERNEL32.dll
 0001:0002dca6       QueryPerformanceCounter    000000018002eca6 f   kernel32:KERNEL32.dll
 0001:0002dcac       GetCurrentProcessId        000000018002ecac f   kernel32:KERNEL32.dll
 0001:0002dcb2       GetCurrentThreadId         000000018002ecb2 f   kernel32:KERNEL32.dll
 0001:0002dcb8       GetSystemTimeAsFileTime    000000018002ecb8 f   kernel32:KERNEL32.dll
 0001:0002dcbe       DisableThreadLibraryCalls  000000018002ecbe f   kernel32:KERNEL32.dll
 0001:0002dcc4       InitializeSListHead        000000018002ecc4 f   kernel32:KERNEL32.dll
 0001:0002dcca       IsDebuggerPresent          000000018002ecca f   kernel32:KERNEL32.dll
 0001:0002dcd0       GetStartupInfoW            000000018002ecd0 f   kernel32:KERNEL32.dll
 0001:0002dcd6       GetModuleHandleW           000000018002ecd6 f   kernel32:KERNEL32.dll
 0001:0002dcdc       memcpy                     000000018002ecdc f   vcruntime:VCRUNTIME140.dll
 0001:0002dce2       memmove                    000000018002ece2 f   vcruntime:VCRUNTIME140.dll
 0001:0002dce8       memset                     000000018002ece8 f   vcruntime:VCRUNTIME140.dll
 0001:0002dcee       __std_exception_copy       000000018002ecee f   vcruntime:VCRUNTIME140.dll
 0001:0002dcf4       __std_exception_destroy    000000018002ecf4 f   vcruntime:VCRUNTIME140.dll
 0001:0002dcfa       _CxxThrowException         000000018002ecfa f   vcruntime:VCRUNTIME140.dll
 0001:0002dd00       __CxxFrameHandler4         000000018002ed00 f   vcruntime:VCRUNTIME140_1.dll
 0001:0002dd06       __C_specific_handler       000000018002ed06 f   vcruntime:VCRUNTIME140.dll
 0001:0002dd0c       __std_type_info_destroy_list 000000018002ed0c f   vcruntime:VCRUNTIME140.dll
 0001:0002dd12       __current_exception        000000018002ed12 f   vcruntime:VCRUNTIME140.dll
 0001:0002dd18       __current_exception_context 000000018002ed18 f   vcruntime:VCRUNTIME140.dll
 0001:0002dd1e       calloc                     000000018002ed1e f   ucrt:api-ms-win-crt-heap-l1-1-0.dll
 0001:0002dd24       free                       000000018002ed24 f   ucrt:api-ms-win-crt-heap-l1-1-0.dll
 0001:0002dd2a       strcmp                     000000018002ed2a f   ucrt:api-ms-win-crt-string-l1-1-0.dll
 0001:0002dd30       strlen                     000000018002ed30 f   ucrt:api-ms-win-crt-string-l1-1-0.dll
 0001:0002dd36       __stdio_common_vsprintf    000000018002ed36 f   ucrt:api-ms-win-crt-stdio-l1-1-0.dll
 0001:0002dd3c       malloc                     000000018002ed3c f   ucrt:api-ms-win-crt-heap-l1-1-0.dll
 0001:0002dd42       fabs                       000000018002ed42 f   ucrt:api-ms-win-crt-math-l1-1-0.dll
 0001:0002dd48       sqrt                       000000018002ed48 f   ucrt:api-ms-win-crt-math-l1-1-0.dll
 0001:0002dd4e       realloc                    000000018002ed4e f   ucrt:api-ms-win-crt-heap-l1-1-0.dll
 0001:0002dd54       qsort                      000000018002ed54 f   ucrt:api-ms-win-crt-utility-l1-1-0.dll
 0001:0002dd5a       fmin                       000000018002ed5a f   ucrt:api-ms-win-crt-math-l1-1-0.dll
 0001:0002dd60       fclose                     000000018002ed60 f   ucrt:api-ms-win-crt-stdio-l1-1-0.dll
 0001:0002dd66       fopen                      000000018002ed66 f   ucrt:api-ms-win-crt-stdio-l1-1-0.dll
 0001:0002dd6c       __stdio_common_vfprintf    000000018002ed6c f   ucrt:api-ms-win-crt-stdio-l1-1-0.dll
 0001:0002dd72       _invalid_parameter_noinfo_noreturn 000000018002ed72 f   ucrt:api-ms-win-crt-runtime-l1-1-0.dll
 0001:0002dd78       strcpy                     000000018002ed78 f   ucrt:api-ms-win-crt-string-l1-1-0.dll
 0001:0002dd7e       _callnewh                  000000018002ed7e f   ucrt:api-ms-win-crt-heap-l1-1-0.dll
 0001:0002dd84       _initterm                  000000018002ed84 f   ucrt:api-ms-win-crt-runtime-l1-1-0.dll
 0001:0002dd8a       _initterm_e                000000018002ed8a f   ucrt:api-ms-win-crt-runtime-l1-1-0.dll
 0001:0002dd90       _seh_filter_dll            000000018002ed90 f   ucrt:api-ms-win-crt-runtime-l1-1-0.dll
 0001:0002dd96       _configure_narrow_argv     000000018002ed96 f   ucrt:api-ms-win-crt-runtime-l1-1-0.dll
 0001:0002dd9c       _initialize_narrow_environment 000000018002ed9c f   ucrt:api-ms-win-crt-runtime-l1-1-0.dll
 0001:0002dda2       _initialize_onexit_table   000000018002eda2 f   ucrt:api-ms-win-crt-runtime-l1-1-0.dll
 0001:0002dda8       _register_onexit_function  000000018002eda8 f   ucrt:api-ms-win-crt-runtime-l1-1-0.dll
 0001:0002ddae       _execute_onexit_table      000000018002edae f   ucrt:api-ms-win-crt-runtime-l1-1-0.dll
 0001:0002ddb4       _crt_atexit                000000018002edb4 f   ucrt:api-ms-win-crt-runtime-l1-1-0.dll
 0001:0002ddba       _crt_at_quick_exit         000000018002edba f   ucrt:api-ms-win-crt-runtime-l1-1-0.dll
 0001:0002ddc0       _cexit                     000000018002edc0 f   ucrt:api-ms-win-crt-runtime-l1-1-0.dll
 0001:0002ddc6       terminate                  000000018002edc6 f   ucrt:api-ms-win-crt-runtime-l1-1-0.dll
 0001:0002ddcc       __acrt_initialize          000000018002edcc f   MSVCRT:ucrt_stubs.obj
 0001:0002ddcc       __scrt_stub_for_acrt_initialize 000000018002edcc f   MSVCRT:ucrt_stubs.obj
 0001:0002ddcc       __vcrt_initialize          000000018002edcc f   MSVCRT:ucrt_stubs.obj
 0001:0002ddd0       __acrt_thread_attach       000000018002edd0 f   MSVCRT:ucrt_stubs.obj
 0001:0002ddd0       __scrt_stub_for_acrt_thread_attach 000000018002edd0 f   MSVCRT:ucrt_stubs.obj
 0001:0002ddd0       __vcrt_thread_attach       000000018002edd0 f   MSVCRT:ucrt_stubs.obj
 0001:0002ddd4       __acrt_thread_detach       000000018002edd4 f   MSVCRT:ucrt_stubs.obj
 0001:0002ddd4       __scrt_stub_for_acrt_thread_detach 000000018002edd4 f   MSVCRT:ucrt_stubs.obj
 0001:0002ddd4       __vcrt_thread_detach       000000018002edd4 f   MSVCRT:ucrt_stubs.obj
 0001:0002ddd8       __acrt_uninitialize        000000018002edd8 f   MSVCRT:ucrt_stubs.obj
 0001:0002ddd8       __scrt_stub_for_acrt_uninitialize 000000018002edd8 f   MSVCRT:ucrt_stubs.obj
 0001:0002ddd8       __vcrt_uninitialize        000000018002edd8 f   MSVCRT:ucrt_stubs.obj
 0001:0002dddc       __acrt_uninitialize_critical 000000018002eddc f   MSVCRT:ucrt_stubs.obj
 0001:0002dddc       __scrt_stub_for_acrt_uninitialize_critical 000000018002eddc f   MSVCRT:ucrt_stubs.obj
 0001:0002dddc       __vcrt_uninitialize_critical 000000018002eddc f   MSVCRT:ucrt_stubs.obj
 0001:0002dde0       __scrt_stub_for_is_c_termination_complete 000000018002ede0 f   MSVCRT:ucrt_stubs.obj
 0001:0002dde0       _is_c_termination_complete 000000018002ede0 f   MSVCRT:ucrt_stubs.obj
 0001:0002de00       _guard_dispatch_icall_nop  000000018002ee00 f   MSVCRT:guard_dispatch.obj
 0001:0002de20       _guard_xfg_dispatch_icall_nop 000000018002ee20 f   MSVCRT:guard_xfg_dispatch.obj
 0002:00000000       __imp_RtlCaptureContext    0000000180030000     kernel32:KERNEL32.dll
 0002:00000008       __imp_GetModuleHandleW     0000000180030008     kernel32:KERNEL32.dll
 0002:00000010       __imp_GetStartupInfoW      0000000180030010     kernel32:KERNEL32.dll
 0002:00000018       __imp_IsDebuggerPresent    0000000180030018     kernel32:KERNEL32.dll
 0002:00000020       __imp_InitializeSListHead  0000000180030020     kernel32:KERNEL32.dll
 0002:00000028       __imp_DisableThreadLibraryCalls 0000000180030028     kernel32:KERNEL32.dll
 0002:00000030       __imp_GetSystemTimeAsFileTime 0000000180030030     kernel32:KERNEL32.dll
 0002:00000038       __imp_GetCurrentThreadId   0000000180030038     kernel32:KERNEL32.dll
 0002:00000040       __imp_GetCurrentProcessId  0000000180030040     kernel32:KERNEL32.dll
 0002:00000048       __imp_QueryPerformanceCounter 0000000180030048     kernel32:KERNEL32.dll
 0002:00000050       __imp_IsProcessorFeaturePresent 0000000180030050     kernel32:KERNEL32.dll
 0002:00000058       __imp_TerminateProcess     0000000180030058     kernel32:KERNEL32.dll
 0002:00000060       __imp_GetCurrentProcess    0000000180030060     kernel32:KERNEL32.dll
 0002:00000068       __imp_SetUnhandledExceptionFilter 0000000180030068     kernel32:KERNEL32.dll
 0002:00000070       __imp_UnhandledExceptionFilter 0000000180030070     kernel32:KERNEL32.dll
 0002:00000078       __imp_RtlVirtualUnwind     0000000180030078     kernel32:KERNEL32.dll
 0002:00000080       __imp_RtlLookupFunctionEntry 0000000180030080     kernel32:KERNEL32.dll
 0002:00000088       \177KERNEL32_NULL_THUNK_DATA 0000000180030088     kernel32:KERNEL32.dll
 0002:00000090       __imp_?cout@std@@3V?$basic_ostream@DU?$char_traits@D@std@@@1@A 0000000180030090     msvcprt:MSVCP140.dll
 0002:00000098       __imp_?flush@?$basic_ostream@DU?$char_traits@D@std@@@std@@QEAAAEAV12@XZ 0000000180030098     msvcprt:MSVCP140.dll
 0002:000000a0       __imp_?put@?$basic_ostream@DU?$char_traits@D@std@@@std@@QEAAAEAV12@D@Z 00000001800300a0     msvcprt:MSVCP140.dll
 0002:000000a8       __imp_??6?$basic_ostream@DU?$char_traits@D@std@@@std@@QEAAAEAV01@P6AAEAV01@AEAV01@@Z@Z 00000001800300a8     msvcprt:MSVCP140.dll
 0002:000000b0       __imp_?_Osfx@?$basic_ostream@DU?$char_traits@D@std@@@std@@QEAAXXZ 00000001800300b0     msvcprt:MSVCP140.dll
 0002:000000b8       __imp_?widen@?$basic_ios@DU?$char_traits@D@std@@@std@@QEBADD@Z 00000001800300b8     msvcprt:MSVCP140.dll
 0002:000000c0       __imp_?_Xlength_error@std@@YAXPEBD@Z 00000001800300c0     msvcprt:MSVCP140.dll
 0002:000000c8       __imp_?uncaught_exception@std@@YA_NXZ 00000001800300c8     msvcprt:MSVCP140.dll
 0002:000000d0       __imp_?good@ios_base@std@@QEBA_NXZ 00000001800300d0     msvcprt:MSVCP140.dll
 0002:000000d8       __imp_?flags@ios_base@std@@QEBAHXZ 00000001800300d8     msvcprt:MSVCP140.dll
 0002:000000e0       __imp_?width@ios_base@std@@QEBA_JXZ 00000001800300e0     msvcprt:MSVCP140.dll
 0002:000000e8       __imp_?width@ios_base@std@@QEAA_J_J@Z 00000001800300e8     msvcprt:MSVCP140.dll
 0002:000000f0       __imp_?sputc@?$basic_streambuf@DU?$char_traits@D@std@@@std@@QEAAHD@Z 00000001800300f0     msvcprt:MSVCP140.dll
 0002:000000f8       __imp_?sputn@?$basic_streambuf@DU?$char_traits@D@std@@@std@@QEAA_JPEBD_J@Z 00000001800300f8     msvcprt:MSVCP140.dll
 0002:00000100       __imp_?setstate@?$basic_ios@DU?$char_traits@D@std@@@std@@QEAAXH_N@Z 0000000180030100     msvcprt:MSVCP140.dll
 0002:00000108       __imp_?tie@?$basic_ios@DU?$char_traits@D@std@@@std@@QEBAPEAV?$basic_ostream@DU?$char_traits@D@std@@@2@XZ 0000000180030108     msvcprt:MSVCP140.dll
 0002:00000110       __imp_?fill@?$basic_ios@DU?$char_traits@D@std@@@std@@QEBADXZ 0000000180030110     msvcprt:MSVCP140.dll
 0002:00000118       __imp_?rdbuf@?$basic_ios@DU?$char_traits@D@std@@@std@@QEBAPEAV?$basic_streambuf@DU?$char_traits@D@std@@@2@XZ 0000000180030118     msvcprt:MSVCP140.dll
 0002:00000120       \177MSVCP140_NULL_THUNK_DATA 0000000180030120     msvcprt:MSVCP140.dll
 0002:00000128       __imp___std_exception_copy 0000000180030128     vcruntime:VCRUNTIME140.dll
 0002:00000130       __imp___std_exception_destroy 0000000180030130     vcruntime:VCRUNTIME140.dll
 0002:00000138       __imp__CxxThrowException   0000000180030138     vcruntime:VCRUNTIME140.dll
 0002:00000140       __imp_memset               0000000180030140     vcruntime:VCRUNTIME140.dll
 0002:00000148       __imp_memmove              0000000180030148     vcruntime:VCRUNTIME140.dll
 0002:00000150       __imp___C_specific_handler 0000000180030150     vcruntime:VCRUNTIME140.dll
 0002:00000158       __imp___std_type_info_destroy_list 0000000180030158     vcruntime:VCRUNTIME140.dll
 0002:00000160       __imp___current_exception  0000000180030160     vcruntime:VCRUNTIME140.dll
 0002:00000168       __imp___current_exception_context 0000000180030168     vcruntime:VCRUNTIME140.dll
 0002:00000170       __imp_memcpy               0000000180030170     vcruntime:VCRUNTIME140.dll
 0002:00000178       \177VCRUNTIME140_NULL_THUNK_DATA 0000000180030178     vcruntime:VCRUNTIME140.dll
 0002:00000180       __imp___CxxFrameHandler4   0000000180030180     vcruntime:VCRUNTIME140_1.dll
 0002:00000188       \177VCRUNTIME140_1_NULL_THUNK_DATA 0000000180030188     vcruntime:VCRUNTIME140_1.dll
 0002:00000190       __imp_malloc               0000000180030190     ucrt:api-ms-win-crt-heap-l1-1-0.dll
 0002:00000198       __imp__callnewh            0000000180030198     ucrt:api-ms-win-crt-heap-l1-1-0.dll
 0002:000001a0       __imp_realloc              00000001800301a0     ucrt:api-ms-win-crt-heap-l1-1-0.dll
 0002:000001a8       __imp_free                 00000001800301a8     ucrt:api-ms-win-crt-heap-l1-1-0.dll
 0002:000001b0       __imp_calloc               00000001800301b0     ucrt:api-ms-win-crt-heap-l1-1-0.dll
 0002:000001b8       \177api-ms-win-crt-heap-l1-1-0_NULL_THUNK_DATA 00000001800301b8     ucrt:api-ms-win-crt-heap-l1-1-0.dll
 0002:000001c0       __imp_sqrt                 00000001800301c0     ucrt:api-ms-win-crt-math-l1-1-0.dll
 0002:000001c8       __imp_fabs                 00000001800301c8     ucrt:api-ms-win-crt-math-l1-1-0.dll
 0002:000001d0       __imp_fmin                 00000001800301d0     ucrt:api-ms-win-crt-math-l1-1-0.dll
 0002:000001d8       \177api-ms-win-crt-math-l1-1-0_NULL_THUNK_DATA 00000001800301d8     ucrt:api-ms-win-crt-math-l1-1-0.dll
 0002:000001e0       __imp__initterm            00000001800301e0     ucrt:api-ms-win-crt-runtime-l1-1-0.dll
 0002:000001e8       __imp__configure_narrow_argv 00000001800301e8     ucrt:api-ms-win-crt-runtime-l1-1-0.dll
 0002:000001f0       __imp__initialize_narrow_environment 00000001800301f0     ucrt:api-ms-win-crt-runtime-l1-1-0.dll
 0002:000001f8       __imp__initialize_onexit_table 00000001800301f8     ucrt:api-ms-win-crt-runtime-l1-1-0.dll
 0002:00000200       __imp__register_onexit_function 0000000180030200     ucrt:api-ms-win-crt-runtime-l1-1-0.dll
 0002:00000208       __imp__execute_onexit_table 0000000180030208     ucrt:api-ms-win-crt-runtime-l1-1-0.dll
 0002:00000210       __imp__crt_atexit          0000000180030210     ucrt:api-ms-win-crt-runtime-l1-1-0.dll
 0002:00000218       __imp__crt_at_quick_exit   0000000180030218     ucrt:api-ms-win-crt-runtime-l1-1-0.dll
 0002:00000220       __imp__cexit               0000000180030220     ucrt:api-ms-win-crt-runtime-l1-1-0.dll
 0002:00000228       __imp_terminate            0000000180030228     ucrt:api-ms-win-crt-runtime-l1-1-0.dll
 0002:00000230       __imp__invalid_parameter_noinfo_noreturn 0000000180030230     ucrt:api-ms-win-crt-runtime-l1-1-0.dll
 0002:00000238       __imp__initterm_e          0000000180030238     ucrt:api-ms-win-crt-runtime-l1-1-0.dll
 0002:00000240       __imp__seh_filter_dll      0000000180030240     ucrt:api-ms-win-crt-runtime-l1-1-0.dll
 0002:00000248       \177api-ms-win-crt-runtime-l1-1-0_NULL_THUNK_DATA 0000000180030248     ucrt:api-ms-win-crt-runtime-l1-1-0.dll
 0002:00000250       __imp___stdio_common_vfprintf 0000000180030250     ucrt:api-ms-win-crt-stdio-l1-1-0.dll
 0002:00000258       __imp_fclose               0000000180030258     ucrt:api-ms-win-crt-stdio-l1-1-0.dll
 0002:00000260       __imp_fopen                0000000180030260     ucrt:api-ms-win-crt-stdio-l1-1-0.dll
 0002:00000268       __imp___stdio_common_vsprintf 0000000180030268     ucrt:api-ms-win-crt-stdio-l1-1-0.dll
 0002:00000270       \177api-ms-win-crt-stdio-l1-1-0_NULL_THUNK_DATA 0000000180030270     ucrt:api-ms-win-crt-stdio-l1-1-0.dll
 0002:00000278       __imp_strcpy               0000000180030278     ucrt:api-ms-win-crt-string-l1-1-0.dll
 0002:00000280       __imp_strlen               0000000180030280     ucrt:api-ms-win-crt-string-l1-1-0.dll
 0002:00000288       __imp_strcmp               0000000180030288     ucrt:api-ms-win-crt-string-l1-1-0.dll
 0002:00000290       \177api-ms-win-crt-string-l1-1-0_NULL_THUNK_DATA 0000000180030290     ucrt:api-ms-win-crt-string-l1-1-0.dll
 0002:00000298       __imp_qsort                0000000180030298     ucrt:api-ms-win-crt-utility-l1-1-0.dll
 0002:000002a0       \177api-ms-win-crt-utility-l1-1-0_NULL_THUNK_DATA 00000001800302a0     ucrt:api-ms-win-crt-utility-l1-1-0.dll
 0002:000002a8       __imp_emlrtLicenseCheckR2022a 00000001800302a8     libemlrt:libemlrt.dll
 0002:000002b0       __imp_emlrtMxGetData       00000001800302b0     libemlrt:libemlrt.dll
 0002:000002b8       __imp_emlrtSubAssignSizeCheckR2012b 00000001800302b8     libemlrt:libemlrt.dll
 0002:000002c0       __imp_emlrtInitCharArrayR2013a 00000001800302c0     libemlrt:libemlrt.dll
 0002:000002c8       __imp_emlrtFreeMex         00000001800302c8     libemlrt:libemlrt.dll
 0002:000002d0       __imp_emlrtCallocMex       00000001800302d0     libemlrt:libemlrt.dll
 0002:000002d8       __imp_emlrtMallocMex       00000001800302d8     libemlrt:libemlrt.dll
 0002:000002e0       __imp_emlrtAssign          00000001800302e0     libemlrt:libemlrt.dll
 0002:000002e8       __imp_emlrtForLoopVectorCheckR2021a 00000001800302e8     libemlrt:libemlrt.dll
 0002:000002f0       __imp_emlrtNonNegativeCheckR2012b 00000001800302f0     libemlrt:libemlrt.dll
 0002:000002f8       __imp_emlrtIntegerCheckR2012b 00000001800302f8     libemlrt:libemlrt.dll
 0002:00000300       __imp_emlrtCreateCharArray 0000000180030300     libemlrt:libemlrt.dll
 0002:00000308       __imp_emlrtCreateDoubleScalar 0000000180030308     libemlrt:libemlrt.dll
 0002:00000310       __imp_emlrtCreateNumericMatrix 0000000180030310     libemlrt:libemlrt.dll
 0002:00000318       __imp_emlrtDynamicBoundsCheckR2012b 0000000180030318     libemlrt:libemlrt.dll
 0002:00000320       __imp_emlrtCallMATLABR2012b 0000000180030320     libemlrt:libemlrt.dll
 0002:00000328       \177libemlrt_NULL_THUNK_DATA 0000000180030328     libemlrt:libemlrt.dll
 0002:00000330       __imp_mexUnlock_800        0000000180030330     libmex:libmex.dll
 0002:00000338       __imp_mexWarnMsgTxt_800    0000000180030338     libmex:libmex.dll
 0002:00000340       __imp_mexIsLocked_800      0000000180030340     libmex:libmex.dll
 0002:00000348       __imp_mexPrintf_800        0000000180030348     libmex:libmex.dll
 0002:00000350       __imp_mexCallMATLAB_800    0000000180030350     libmex:libmex.dll
 0002:00000358       \177libmex_NULL_THUNK_DATA 0000000180030358     libmex:libmex.dll
 0002:00000360       __imp_dgemm                0000000180030360     libmwblas:libmwblas.dll
 0002:00000368       \177libmwblas_NULL_THUNK_DATA 0000000180030368     libmwblas:libmwblas.dll
 0002:00000370       __imp_cgxertGetEMLRTCtx    0000000180030370     libmwcgxert:libmwcgxert.dll
 0002:00000378       __imp_cgxertSetGcb         0000000180030378     libmwcgxert:libmwcgxert.dll
 0002:00000380       __imp_cgxertRestoreGcb     0000000180030380     libmwcgxert:libmwcgxert.dll
 0002:00000388       __imp_cgxertSetRuntimeInstance 0000000180030388     libmwcgxert:libmwcgxert.dll
 0002:00000390       __imp_cgxertGetRuntimeInstance 0000000180030390     libmwcgxert:libmwcgxert.dll
 0002:00000398       __imp_cgxertSetSimStateCompliance 0000000180030398     libmwcgxert:libmwcgxert.dll
 0002:000003a0       __imp_cgxertGetOutputPortSignal 00000001800303a0     libmwcgxert:libmwcgxert.dll
 0002:000003a8       __imp_cgxertGetInputPortSignal 00000001800303a8     libmwcgxert:libmwcgxert.dll
 0002:000003b0       \177libmwcgxert_NULL_THUNK_DATA 00000001800303b0     libmwcgxert:libmwcgxert.dll
 0002:000003b8       __imp_muDoubleScalarCos    00000001800303b8     libmwmathutil:libmwmathutil.dll
 0002:000003c0       __imp_muDoubleScalarFloor  00000001800303c0     libmwmathutil:libmwmathutil.dll
 0002:000003c8       __imp_muDoubleScalarSin    00000001800303c8     libmwmathutil:libmwmathutil.dll
 0002:000003d0       __imp_muDoubleScalarSqrt   00000001800303d0     libmwmathutil:libmwmathutil.dll
 0002:000003d8       __imp_muDoubleScalarIsInf  00000001800303d8     libmwmathutil:libmwmathutil.dll
 0002:000003e0       __imp_muDoubleScalarIsNaN  00000001800303e0     libmwmathutil:libmwmathutil.dll
 0002:000003e8       \177libmwmathutil_NULL_THUNK_DATA 00000001800303e8     libmwmathutil:libmwmathutil.dll
 0002:000003f0       __imp_mxCreateNumericMatrix_800 00000001800303f0     libmx:libmx.dll
 0002:000003f8       __imp_mxCreateDoubleMatrix_800 00000001800303f8     libmx:libmx.dll
 0002:00000400       __imp_mxSetField_800       0000000180030400     libmx:libmx.dll
 0002:00000408       __imp_mxGetPr_800          0000000180030408     libmx:libmx.dll
 0002:00000410       __imp_mxGetN_800           0000000180030410     libmx:libmx.dll
 0002:00000418       __imp_mxCreateDoubleScalar_800 0000000180030418     libmx:libmx.dll
 0002:00000420       __imp_mxIsChar_800         0000000180030420     libmx:libmx.dll
 0002:00000428       __imp_mxIsNumeric_800      0000000180030428     libmx:libmx.dll
 0002:00000430       __imp_mxGetData_800        0000000180030430     libmx:libmx.dll
 0002:00000438       __imp_mxGetClassID_800     0000000180030438     libmx:libmx.dll
 0002:00000440       __imp_mxGetM_800           0000000180030440     libmx:libmx.dll
 0002:00000448       __imp_mxCalloc_800         0000000180030448     libmx:libmx.dll
 0002:00000450       __imp_mxGetNaN_800         0000000180030450     libmx:libmx.dll
 0002:00000458       __imp_mxCreateStructMatrix_800 0000000180030458     libmx:libmx.dll
 0002:00000460       __imp_mxCreateCellMatrix_800 0000000180030460     libmx:libmx.dll
 0002:00000468       __imp_mxCreateString_800   0000000180030468     libmx:libmx.dll
 0002:00000470       __imp_mxGetString_800      0000000180030470     libmx:libmx.dll
 0002:00000478       __imp_mxIsComplex_800      0000000180030478     libmx:libmx.dll
 0002:00000480       __imp_mxSetFieldByNumber_800 0000000180030480     libmx:libmx.dll
 0002:00000488       __imp_mxSetCell_800        0000000180030488     libmx:libmx.dll
 0002:00000490       \177libmx_NULL_THUNK_DATA  0000000180030490     libmx:libmx.dll
 0002:00000498       __guard_check_icall_fptr   0000000180030498     MSVCRT:guard_support.obj
 0002:000004a0       __guard_xfg_check_icall_fptr 00000001800304a0     MSVCRT:guard_support.obj
 0002:000004a8       __guard_dispatch_icall_fptr 00000001800304a8     MSVCRT:guard_support.obj
 0002:000004b0       __guard_xfg_dispatch_icall_fptr 00000001800304b0     MSVCRT:guard_support.obj
 0002:000004b8       __guard_xfg_table_dispatch_icall_fptr 00000001800304b8     MSVCRT:guard_support.obj
 0002:000004c0       __castguard_check_failure_os_handled_fptr 00000001800304c0     MSVCRT:guard_support.obj
 0002:000004c8       __guard_memcpy_fptr        00000001800304c8     vcruntime:softmemtag.obj
 0002:000004d0       __xc_a                     00000001800304d0     MSVCRT:initializers.obj
 0002:000004d8       __xc_z                     00000001800304d8     MSVCRT:initializers.obj
 0002:000004e0       __xi_a                     00000001800304e0     MSVCRT:initializers.obj
 0002:000004e8       __xi_z                     00000001800304e8     MSVCRT:initializers.obj
 0002:000004f0       __xp_a                     00000001800304f0     MSVCRT:initializers.obj
 0002:000004f8       __xp_z                     00000001800304f8     MSVCRT:initializers.obj
 0002:00000500       __xt_a                     0000000180030500     MSVCRT:initializers.obj
 0002:00000508       __xt_z                     0000000180030508     MSVCRT:initializers.obj
 0002:00000660       __real@0000000000000000    0000000180030660     m_nM5NMYJUCkhQa81HtyaWRC.obj
 0002:00000668       __real@3ff0000000000000    0000000180030668     m_nM5NMYJUCkhQa81HtyaWRC.obj
 0002:00000670       __real@4000000000000000    0000000180030670     m_nM5NMYJUCkhQa81HtyaWRC.obj
 0002:00000678       __real@4008000000000000    0000000180030678     m_nM5NMYJUCkhQa81HtyaWRC.obj
 0002:00000680       __real@4010000000000000    0000000180030680     m_nM5NMYJUCkhQa81HtyaWRC.obj
 0002:00000688       __real@4014000000000000    0000000180030688     m_nM5NMYJUCkhQa81HtyaWRC.obj
 0002:00000690       __real@41dfffffffc00000    0000000180030690     m_nM5NMYJUCkhQa81HtyaWRC.obj
 0002:00000698       __real@bff0000000000000    0000000180030698     m_nM5NMYJUCkhQa81HtyaWRC.obj
 0002:000006a0       __real@c1e0000000000000    00000001800306a0     m_nM5NMYJUCkhQa81HtyaWRC.obj
 0002:000006b0       __xmm@80000000000000008000000000000000 00000001800306b0     m_nM5NMYJUCkhQa81HtyaWRC.obj
 0002:000006c0       __xmm@bff0000000000000bff0000000000000 00000001800306c0     m_nM5NMYJUCkhQa81HtyaWRC.obj
 0002:000006d0       DYNAMIC_DIMENSION_DEF      00000001800306d0     SCARA_Control_System_cgxe_registry.obj
 0002:000006e8       __real@41602cbca0000000    00000001800306e8     SCARA_Control_System_cgxe_registry.obj
 0002:000006f0       __real@41bc6f0209000000    00000001800306f0     SCARA_Control_System_cgxe_registry.obj
 0002:000006f8       __real@41cac4c1a0000000    00000001800306f8     SCARA_Control_System_cgxe_registry.obj
 0002:00000700       __real@41cb46d0c3800000    0000000180030700     SCARA_Control_System_cgxe_registry.obj
 0002:00000708       __real@41d1657b3ac00000    0000000180030708     SCARA_Control_System_cgxe_registry.obj
 0002:00000710       __real@41d18db11e800000    0000000180030710     SCARA_Control_System_cgxe_registry.obj
 0002:00000718       __real@41dc67f553c00000    0000000180030718     SCARA_Control_System_cgxe_registry.obj
 0002:00000720       __real@41dfa35183000000    0000000180030720     SCARA_Control_System_cgxe_registry.obj
 0002:00000728       __real@41e07a6f80c00000    0000000180030728     SCARA_Control_System_cgxe_registry.obj
 0002:00000730       __real@41e0c603e7800000    0000000180030730     SCARA_Control_System_cgxe_registry.obj
 0002:00000738       __real@41e13401bfc00000    0000000180030738     SCARA_Control_System_cgxe_registry.obj
 0002:00000740       __real@41e2069ed9a00000    0000000180030740     SCARA_Control_System_cgxe_registry.obj
 0002:00000748       __real@41e39f5398200000    0000000180030748     SCARA_Control_System_cgxe_registry.obj
 0002:00000750       __real@41e5b0b712600000    0000000180030750     SCARA_Control_System_cgxe_registry.obj
 0002:00000758       __real@41e64c88ed400000    0000000180030758     SCARA_Control_System_cgxe_registry.obj
 0002:00000760       __real@41e83c9655800000    0000000180030760     SCARA_Control_System_cgxe_registry.obj
 0002:00000768       __real@41edfec647200000    0000000180030768     SCARA_Control_System_cgxe_registry.obj
 0002:00000770       __real@3cb0000000000000    0000000180030770     ccd_ccd.obj
 0002:00000778       __real@3ce4000000000000    0000000180030778     ccd_mpr.obj
 0002:00000780       __real@3fe0000000000000    0000000180030780     ccd_mpr.obj
 0002:00000788       __real@7fefffffffffffff    0000000180030788     ccd_polytope.obj
 0002:000007c0       ??_7exception@std@@6B@     00000001800307c0     collisioncodegen_CollisionGeometry.obj
 0002:000007d0       ??_C@_0BC@EOODALEL@Unknown?5exception@ 00000001800307d0     collisioncodegen_CollisionGeometry.obj
 0002:000007f0       ??_7bad_alloc@std@@6B@     00000001800307f0     collisioncodegen_CollisionGeometry.obj
 0002:00000808       ??_7bad_array_new_length@std@@6B@ 0000000180030808     collisioncodegen_CollisionGeometry.obj
 0002:00000818       ??_C@_0BF@KINCDENJ@bad?5array?5new?5length@ 0000000180030818     collisioncodegen_CollisionGeometry.obj
 0002:00000838       ??_7CollisionGeometry@shared_robotics@@6B@ 0000000180030838     collisioncodegen_CollisionGeometry.obj
 0002:00000840       ??_C@_0BA@FOIKENOD@vector?5too?5long@ 0000000180030840     collisioncodegen_CollisionGeometry.obj
 0002:00000850       __real@3cd4000000000000    0000000180030850     collisioncodegen_CollisionGeometry.obj
 0002:00000860       ??_C@_0BA@JFNIOLAK@string?5too?5long@ 0000000180030860     collisioncodegen_api.obj
 0002:00000870       ??_C@_03ELMLMPLG@Box@      0000000180030870     collisioncodegen_api.obj
 0002:00000874       ??_C@_06JBMJMGAL@Sphere@   0000000180030874     collisioncodegen_api.obj
 0002:00000880       ??_C@_08OPEIJNOM@Cylinder@ 0000000180030880     collisioncodegen_api.obj
 0002:00000890       ??_C@_0P@FPLKDNIJ@ConvexMeshFull@ 0000000180030890     collisioncodegen_api.obj
 0002:000008a0       ??_C@_07KAPIMIBP@Capsule@  00000001800308a0     collisioncodegen_api.obj
 0002:000008a8       ??_C@_0L@GMFHOMKA@ConvexMesh@ 00000001800308a8     collisioncodegen_api.obj
 0002:000008b8       __real@3eb0c6f7a0b5ed8d    00000001800308b8     collisioncodegen_checkCollision.obj
 0002:000008c0       __real@3f1a36e2eb1c432d    00000001800308c0     collisioncodegen_checkCollision.obj
 0002:000008e0       ??_7type_info@@6B@         00000001800308e0     MSVCRT:std_type_info_static.obj
 0002:000008e8       _pDefaultRawDllMain        00000001800308e8     MSVCRT:dll_dllmain.obj
 0002:000008e8       _pRawDllMain               00000001800308e8     MSVCRT:dll_dllmain.obj
 0002:000008f0       ??_C@_0P@GHFPNOJB@bad?5allocation@ 00000001800308f0     MSVCRT:throw_bad_alloc.obj
 0002:00000900       __xmm@ffffffffffffffffffffffffffffffff 0000000180030900     MSVCRT:utility.obj
 0002:00000910       _load_config_used          0000000180030910     MSVCRT:loadcfg.obj
 0002:00000a80       __CastGuardVftablesStart   0000000180030a80     MSVCRT:guard_support.obj
 0002:00000b00       __CastGuardVftablesEnd     0000000180030b00     MSVCRT:guard_support.obj
 0002:00000b80       ??_R4exception@std@@6B@    0000000180030b80     collisioncodegen_CollisionGeometry.obj
 0002:00000ba8       ??_R3exception@std@@8      0000000180030ba8     collisioncodegen_CollisionGeometry.obj
 0002:00000bc0       ??_R2exception@std@@8      0000000180030bc0     collisioncodegen_CollisionGeometry.obj
 0002:00000bd0       ??_R1A@?0A@EA@exception@std@@8 0000000180030bd0     collisioncodegen_CollisionGeometry.obj
 0002:00000bf8       ??_R4bad_alloc@std@@6B@    0000000180030bf8     collisioncodegen_CollisionGeometry.obj
 0002:00000c20       ??_R3bad_alloc@std@@8      0000000180030c20     collisioncodegen_CollisionGeometry.obj
 0002:00000c38       ??_R2bad_alloc@std@@8      0000000180030c38     collisioncodegen_CollisionGeometry.obj
 0002:00000c50       ??_R1A@?0A@EA@bad_alloc@std@@8 0000000180030c50     collisioncodegen_CollisionGeometry.obj
 0002:00000c78       ??_R4bad_array_new_length@std@@6B@ 0000000180030c78     collisioncodegen_CollisionGeometry.obj
 0002:00000ca0       ??_R3bad_array_new_length@std@@8 0000000180030ca0     collisioncodegen_CollisionGeometry.obj
 0002:00000cb8       ??_R2bad_array_new_length@std@@8 0000000180030cb8     collisioncodegen_CollisionGeometry.obj
 0002:00000cd8       ??_R1A@?0A@EA@bad_array_new_length@std@@8 0000000180030cd8     collisioncodegen_CollisionGeometry.obj
 0002:00000d00       ??_R4CollisionGeometry@shared_robotics@@6B@ 0000000180030d00     collisioncodegen_CollisionGeometry.obj
 0002:00000d28       ??_R3CollisionGeometry@shared_robotics@@8 0000000180030d28     collisioncodegen_CollisionGeometry.obj
 0002:00000d40       ??_R2CollisionGeometry@shared_robotics@@8 0000000180030d40     collisioncodegen_CollisionGeometry.obj
 0002:00000d50       ??_R1A@?0A@EA@CollisionGeometry@shared_robotics@@8 0000000180030d50     collisioncodegen_CollisionGeometry.obj
 0002:00000d78       ??_R4type_info@@6B@        0000000180030d78     MSVCRT:std_type_info_static.obj
 0002:00000da0       ??_R3type_info@@8          0000000180030da0     MSVCRT:std_type_info_static.obj
 0002:00000db8       ??_R2type_info@@8          0000000180030db8     MSVCRT:std_type_info_static.obj
 0002:00000dc8       ??_R1A@?0A@EA@type_info@@8 0000000180030dc8     MSVCRT:std_type_info_static.obj
 0002:00000dec       __volatile_metadata        0000000180030dec     <linker-defined>
 0002:00001370       __rtc_iaa                  0000000180031370     MSVCRT:initsect.obj
 0002:00001378       __rtc_izz                  0000000180031378     MSVCRT:initsect.obj
 0002:00001380       __rtc_taa                  0000000180031380     MSVCRT:initsect.obj
 0002:00001388       __rtc_tzz                  0000000180031388     MSVCRT:initsect.obj
 0002:00003268       _TI3?AVbad_array_new_length@std@@ 0000000180033268     collisioncodegen_CollisionGeometry.obj
 0002:00003288       _CTA3?AVbad_array_new_length@std@@ 0000000180033288     collisioncodegen_CollisionGeometry.obj
 0002:000032a8       _CT??_R0?AVbad_array_new_length@std@@@8??0bad_array_new_length@std@@QEAA@AEBV01@@Z24 00000001800332a8     collisioncodegen_CollisionGeometry.obj
 0002:000032d0       _CT??_R0?AVbad_alloc@std@@@8??0bad_alloc@std@@QEAA@AEBV01@@Z24 00000001800332d0     collisioncodegen_CollisionGeometry.obj
 0002:000032f8       _CT??_R0?AVexception@std@@@8??0exception@std@@QEAA@AEBV01@@Z24 00000001800332f8     collisioncodegen_CollisionGeometry.obj
 0002:00003320       _TI2?AVbad_alloc@std@@     0000000180033320     MSVCRT:throw_bad_alloc.obj
 0002:00003340       _CTA2?AVbad_alloc@std@@    0000000180033340     MSVCRT:throw_bad_alloc.obj
 0002:00003628       __IMPORT_DESCRIPTOR_libmx  0000000180033628     libmx:libmx.dll
 0002:0000363c       __IMPORT_DESCRIPTOR_libmex 000000018003363c     libmex:libmex.dll
 0002:00003650       __IMPORT_DESCRIPTOR_libmwmathutil 0000000180033650     libmwmathutil:libmwmathutil.dll
 0002:00003664       __IMPORT_DESCRIPTOR_libemlrt 0000000180033664     libemlrt:libemlrt.dll
 0002:00003678       __IMPORT_DESCRIPTOR_libmwcgxert 0000000180033678     libmwcgxert:libmwcgxert.dll
 0002:0000368c       __IMPORT_DESCRIPTOR_libmwblas 000000018003368c     libmwblas:libmwblas.dll
 0002:000036a0       __IMPORT_DESCRIPTOR_MSVCP140 00000001800336a0     msvcprt:MSVCP140.dll
 0002:000036b4       __IMPORT_DESCRIPTOR_KERNEL32 00000001800336b4     kernel32:KERNEL32.dll
 0002:000036c8       __IMPORT_DESCRIPTOR_VCRUNTIME140 00000001800336c8     vcruntime:VCRUNTIME140.dll
 0002:000036dc       __IMPORT_DESCRIPTOR_VCRUNTIME140_1 00000001800336dc     vcruntime:VCRUNTIME140_1.dll
 0002:000036f0       __IMPORT_DESCRIPTOR_api-ms-win-crt-heap-l1-1-0 00000001800336f0     ucrt:api-ms-win-crt-heap-l1-1-0.dll
 0002:00003704       __IMPORT_DESCRIPTOR_api-ms-win-crt-string-l1-1-0 0000000180033704     ucrt:api-ms-win-crt-string-l1-1-0.dll
 0002:00003718       __IMPORT_DESCRIPTOR_api-ms-win-crt-stdio-l1-1-0 0000000180033718     ucrt:api-ms-win-crt-stdio-l1-1-0.dll
 0002:0000372c       __IMPORT_DESCRIPTOR_api-ms-win-crt-math-l1-1-0 000000018003372c     ucrt:api-ms-win-crt-math-l1-1-0.dll
 0002:00003740       __IMPORT_DESCRIPTOR_api-ms-win-crt-utility-l1-1-0 0000000180033740     ucrt:api-ms-win-crt-utility-l1-1-0.dll
 0002:00003754       __IMPORT_DESCRIPTOR_api-ms-win-crt-runtime-l1-1-0 0000000180033754     ucrt:api-ms-win-crt-runtime-l1-1-0.dll
 0002:00003768       __NULL_IMPORT_DESCRIPTOR   0000000180033768     libmx:libmx.dll
 0003:00005320       DYNAMIC_DIMENSION          000000018003a320     SCARA_Control_System_cgxe_registry.obj
 0003:00007690       ccd_vec3_origin            000000018003c690     ccd_vec3.obj
 0003:00007698       ccd_points_on_sphere       000000018003c698     ccd_vec3.obj
 0003:000076a0       ccd_points_on_sphere_len   000000018003c6a0     ccd_vec3.obj
 0003:00007aa0       __security_cookie_complement 000000018003caa0     MSVCRT:gs_cookie.obj
 0003:00007aa8       __security_cookie          000000018003caa8     MSVCRT:gs_cookie.obj
 0003:00007ab0       _fltused                   000000018003cab0     MSVCRT:fltused.obj
 0003:00007ab4       __scrt_native_dllmain_reason 000000018003cab4     MSVCRT:utility.obj
 0003:00007ab8       __isa_available            000000018003cab8     MSVCRT:cpu_disp.obj
 0003:00007abc       __isa_enabled              000000018003cabc     MSVCRT:cpu_disp.obj
 0003:00007ac0       __memset_fast_string_threshold 000000018003cac0     MSVCRT:cpu_disp.obj
 0003:00007ac8       __memset_nt_threshold      000000018003cac8     MSVCRT:cpu_disp.obj
 0003:00007ad0       __scrt_ucrt_dll_is_in_use  000000018003cad0     MSVCRT:ucrt_stubs.obj
 0003:00007ad8       ??_R0?AVbad_array_new_length@std@@@8 000000018003cad8     collisioncodegen_CollisionGeometry.obj
 0003:00007b08       ??_R0?AVbad_alloc@std@@@8  000000018003cb08     collisioncodegen_CollisionGeometry.obj
 0003:00007b30       ??_R0?AVexception@std@@@8  000000018003cb30     collisioncodegen_CollisionGeometry.obj
 0003:00007b58       ??_R0?AVCollisionGeometry@shared_robotics@@@8 000000018003cb58     collisioncodegen_CollisionGeometry.obj
 0003:00007b90       ??_R0?AVtype_info@@@8      000000018003cb90     MSVCRT:std_type_info_static.obj
 0003:00008170       ?__type_info_root_node@@3U__type_info_node@@A 000000018003d170     MSVCRT:tncleanup.obj
 0003:00008180       ?_OptionsStorage@?1??__local_stdio_printf_options@@9@4_KA 000000018003d180     MSVCRT:default_local_stdio_options.obj
 0003:00008188       ?_OptionsStorage@?1??__local_stdio_scanf_options@@9@4_KA 000000018003d188     MSVCRT:default_local_stdio_options.obj
 0003:00008190       __scrt_current_native_startup_state 000000018003d190     MSVCRT:utility.obj
 0003:00008198       __scrt_native_startup_lock 000000018003d198     MSVCRT:utility.obj
 0003:000081d8       __scrt_debugger_hook_flag  000000018003d1d8     MSVCRT:utility_desktop.obj
 0003:000081e0       __castguard_check_failure_user_handled_fptr 000000018003d1e0     MSVCRT:guard_support.obj
 0003:000081e8       __favor                    000000018003d1e8     MSVCRT:cpu_disp.obj
 0003:000081f0       ?_OptionsStorage@?1??__local_stdio_printf_options@@9@9 000000018003d1f0     <common>
 0003:000081f8       __dyn_tls_init_callback    000000018003d1f8     <common>

 entry point at        0001:0002ce80

 Static symbols

 0000:00000000       .debug$S                   0000000180000000     SCARA_Control_System_cgxe.exp
 0000:00000000       _volmd                     0000000180000000     SCARA_Control_System_cgxe_registry.obj
 0000:00000000       _volmd                     0000000180000000     ccd_ccd.obj
 0000:00000000       _volmd                     0000000180000000     ccd_mpr.obj
 0000:00000000       _volmd                     0000000180000000     ccd_vec3.obj
 0000:00000000       _volmd                     0000000180000000     collisioncodegen_CollisionGeometry.obj
 0000:00000000       _volmd                     0000000180000000     collisioncodegen_CollisionGeometry.obj
 0000:00000000       _volmd                     0000000180000000     collisioncodegen_CollisionGeometry.obj
 0000:00000000       _volmd                     0000000180000000     collisioncodegen_CollisionGeometry.obj
 0000:00000000       _volmd                     0000000180000000     collisioncodegen_CollisionGeometry.obj
 0000:00000000       _volmd                     0000000180000000     collisioncodegen_CollisionGeometry.obj
 0002:fffd0000       $cppxdata$??$_Deallocate@$0BA@$0A@@std@@YAXPEAX_K@Z 0000000180000000     collisioncodegen_api.obj
 0002:fffd0000       $cppxdata$??$_Destroy_range@V?$allocator@V?$vector@_KV?$allocator@_K@std@@@std@@@std@@@std@@YAXPEAV?$vector@_KV?$allocator@_K@std@@@0@QEAV10@AEAV?$allocator@V?$vector@_KV?$allocator@_K@std@@@std@@@0@@Z 0000000180000000     collisioncodegen_api.obj
 0002:fffd0000       $cppxdata$??0exception@std@@QEAA@AEBV01@@Z 0000000180000000     collisioncodegen_api.obj
 0002:fffd0000       $cppxdata$??1exception@std@@UEAA@XZ 0000000180000000     collisioncodegen_api.obj
 0002:fffd0000       $cppxdata$?_Tidy@?$vector@U_ccd_vec3_t@@V?$allocator@U_ccd_vec3_t@@@std@@@std@@AEAAXXZ 0000000180000000     collisioncodegen_api.obj
 0002:fffd0000       $cppxdata$?_Tidy@?$vector@U_idx_vec3_t@shared_robotics@@V?$allocator@U_idx_vec3_t@shared_robotics@@@std@@@std@@AEAAXXZ 0000000180000000     collisioncodegen_api.obj
 0002:fffd0000       $cppxdata$?_Tidy@?$vector@V?$vector@_KV?$allocator@_K@std@@@std@@V?$allocator@V?$vector@_KV?$allocator@_K@std@@@std@@@2@@std@@AEAAXXZ 0000000180000000     collisioncodegen_api.obj
 0002:fffd0000       $cppxdata$?_Tidy@?$vector@_KV?$allocator@_K@std@@@std@@AEAAXXZ 0000000180000000     collisioncodegen_api.obj
 0002:fffd0000       $cppxdata$?length@?$_Narrow_char_traits@DH@std@@SA_KQEBD@Z 0000000180000000     collisioncodegen_api.obj
 0002:fffd0000       $ip2state$??$_Deallocate@$0BA@$0A@@std@@YAXPEAX_K@Z 0000000180000000     collisioncodegen_api.obj
 0002:fffd0000       $ip2state$??$_Destroy_range@V?$allocator@V?$vector@_KV?$allocator@_K@std@@@std@@@std@@@std@@YAXPEAV?$vector@_KV?$allocator@_K@std@@@0@QEAV10@AEAV?$allocator@V?$vector@_KV?$allocator@_K@std@@@std@@@0@@Z 0000000180000000     collisioncodegen_api.obj
 0002:fffd0000       $ip2state$??0exception@std@@QEAA@AEBV01@@Z 0000000180000000     collisioncodegen_api.obj
 0002:fffd0000       $ip2state$??1exception@std@@UEAA@XZ 0000000180000000     collisioncodegen_api.obj
 0002:fffd0000       $ip2state$?_Tidy@?$vector@U_ccd_vec3_t@@V?$allocator@U_ccd_vec3_t@@@std@@@std@@AEAAXXZ 0000000180000000     collisioncodegen_api.obj
 0002:fffd0000       $ip2state$?_Tidy@?$vector@U_idx_vec3_t@shared_robotics@@V?$allocator@U_idx_vec3_t@shared_robotics@@@std@@@std@@AEAAXXZ 0000000180000000     collisioncodegen_api.obj
 0002:fffd0000       $ip2state$?_Tidy@?$vector@V?$vector@_KV?$allocator@_K@std@@@std@@V?$allocator@V?$vector@_KV?$allocator@_K@std@@@std@@@2@@std@@AEAAXXZ 0000000180000000     collisioncodegen_api.obj
 0002:fffd0000       $ip2state$?_Tidy@?$vector@_KV?$allocator@_K@std@@@std@@AEAAXXZ 0000000180000000     collisioncodegen_api.obj
 0002:fffd0000       $ip2state$?length@?$_Narrow_char_traits@DH@std@@SA_KQEBD@Z 0000000180000000     collisioncodegen_api.obj
 0002:fffd0000       $unwind$??$_Allocate@$0BA@U_Default_allocate_traits@std@@$0A@@std@@YAPEAX_K@Z 0000000180000000     collisioncodegen_api.obj
 0002:fffd0000       $unwind$??$_Allocate_manually_vector_aligned@U_Default_allocate_traits@std@@@std@@YAPEAX_K@Z 0000000180000000     collisioncodegen_api.obj
 0002:fffd0000       $unwind$??$_Copy_memmove@PEA_KPEA_K@std@@YAPEA_KPEA_K00@Z 0000000180000000     collisioncodegen_api.obj
 0002:fffd0000       $unwind$??$_Deallocate@$0BA@$0A@@std@@YAXPEAX_K@Z 0000000180000000     collisioncodegen_api.obj
 0002:fffd0000       $unwind$??$_Destroy_range@V?$allocator@V?$vector@_KV?$allocator@_K@std@@@std@@@std@@@std@@YAXPEAV?$vector@_KV?$allocator@_K@std@@@0@QEAV10@AEAV?$allocator@V?$vector@_KV?$allocator@_K@std@@@std@@@0@@Z 0000000180000000     collisioncodegen_api.obj
 0002:fffd0000       $unwind$??$_Get_size_of_n@$07@std@@YA_K_K@Z 0000000180000000     collisioncodegen_api.obj
 0002:fffd0000       $unwind$??$_Get_size_of_n@$0BI@@std@@YA_K_K@Z 0000000180000000     collisioncodegen_api.obj
 0002:fffd0000       $unwind$??$destroy@V?$vector@_KV?$allocator@_K@std@@@std@@@?$_Default_allocator_traits@V?$allocator@V?$vector@_KV?$allocator@_K@std@@@std@@@std@@@std@@SAXAEAV?$allocator@V?$vector@_KV?$allocator@_K@std@@@std@@@1@QEAV?$vector@_KV?$allocator@_K@std@@@1@@Z 0000000180000000     collisioncodegen_api.obj
 0002:fffd0000       $unwind$??$min@_K@std@@YAAEB_KAEB_K0@Z 0000000180000000     collisioncodegen_api.obj
 0002:fffd0000       $unwind$??0bad_alloc@std@@AEAA@QEBD@Z 0000000180000000     collisioncodegen_api.obj
 0002:fffd0000       $unwind$??0bad_alloc@std@@QEAA@AEBV01@@Z 0000000180000000     collisioncodegen_api.obj
 0002:fffd0000       $unwind$??0bad_array_new_length@std@@QEAA@AEBV01@@Z 0000000180000000     collisioncodegen_api.obj
 0002:fffd0000       $unwind$??0bad_array_new_length@std@@QEAA@XZ 0000000180000000     collisioncodegen_api.obj
 0002:fffd0000       $unwind$??0exception@std@@QEAA@AEBV01@@Z 0000000180000000     collisioncodegen_api.obj
 0002:fffd0000       $unwind$??0exception@std@@QEAA@QEBDH@Z 0000000180000000     collisioncodegen_api.obj
 0002:fffd0000       $unwind$??1?$_Uninitialized_backout_al@V?$allocator@V?$vector@_KV?$allocator@_K@std@@@std@@@std@@@std@@QEAA@XZ 0000000180000000     collisioncodegen_api.obj
 0002:fffd0000       $unwind$??1?$_Uninitialized_backout_al@V?$allocator@_K@std@@@std@@QEAA@XZ 0000000180000000     collisioncodegen_api.obj
 0002:fffd0000       $unwind$??1?$vector@U_ccd_vec3_t@@V?$allocator@U_ccd_vec3_t@@@std@@@std@@QEAA@XZ 0000000180000000     collisioncodegen_api.obj
 0002:fffd0000       $unwind$??1?$vector@U_idx_vec3_t@shared_robotics@@V?$allocator@U_idx_vec3_t@shared_robotics@@@std@@@std@@QEAA@XZ 0000000180000000     collisioncodegen_api.obj
 0002:fffd0000       $unwind$??1?$vector@V?$vector@_KV?$allocator@_K@std@@@std@@V?$allocator@V?$vector@_KV?$allocator@_K@std@@@std@@@2@@std@@QEAA@XZ 0000000180000000     collisioncodegen_api.obj
 0002:fffd0000       $unwind$??1?$vector@_KV?$allocator@_K@std@@@std@@QEAA@XZ 0000000180000000     collisioncodegen_api.obj
 0002:fffd0000       $unwind$??1bad_alloc@std@@UEAA@XZ 0000000180000000     collisioncodegen_api.obj
 0002:fffd0000       $unwind$??1bad_array_new_length@std@@UEAA@XZ 0000000180000000     collisioncodegen_api.obj
 0002:fffd0000       $unwind$??1exception@std@@UEAA@XZ 0000000180000000     collisioncodegen_api.obj
 0002:fffd0000       $unwind$??_G?$vector@_KV?$allocator@_K@std@@@std@@QEAAPEAXI@Z 0000000180000000     collisioncodegen_api.obj
 0002:fffd0000       $unwind$??_GCollisionGeometry@shared_robotics@@UEAAPEAXI@Z 0000000180000000     collisioncodegen_api.obj
 0002:fffd0000       $unwind$??_Gbad_alloc@std@@UEAAPEAXI@Z 0000000180000000     collisioncodegen_api.obj
 0002:fffd0000       $unwind$??_Gbad_array_new_length@std@@UEAAPEAXI@Z 0000000180000000     collisioncodegen_api.obj
 0002:fffd0000       $unwind$??_Gexception@std@@UEAAPEAXI@Z 0000000180000000     collisioncodegen_api.obj
 0002:fffd0000       $unwind$?_Adjust_manually_vector_aligned@std@@YAXAEAPEAXAEA_K@Z 0000000180000000     collisioncodegen_api.obj
 0002:fffd0000       $unwind$?_Allocate@_Default_allocate_traits@std@@SAPEAX_K@Z 0000000180000000     collisioncodegen_api.obj
 0002:fffd0000       $unwind$?_Getal@?$vector@U_ccd_vec3_t@@V?$allocator@U_ccd_vec3_t@@@std@@@std@@AEAAAEAV?$allocator@U_ccd_vec3_t@@@2@XZ 0000000180000000     collisioncodegen_api.obj
 0002:fffd0000       $unwind$?_Getal@?$vector@U_idx_vec3_t@shared_robotics@@V?$allocator@U_idx_vec3_t@shared_robotics@@@std@@@std@@AEAAAEAV?$allocator@U_idx_vec3_t@shared_robotics@@@2@XZ 0000000180000000     collisioncodegen_api.obj
 0002:fffd0000       $unwind$?_Getal@?$vector@V?$vector@_KV?$allocator@_K@std@@@std@@V?$allocator@V?$vector@_KV?$allocator@_K@std@@@std@@@2@@std@@AEAAAEAV?$allocator@V?$vector@_KV?$allocator@_K@std@@@std@@@2@XZ 0000000180000000     collisioncodegen_api.obj
 0002:fffd0000       $unwind$?_Getal@?$vector@V?$vector@_KV?$allocator@_K@std@@@std@@V?$allocator@V?$vector@_KV?$allocator@_K@std@@@std@@@2@@std@@AEBAAEBV?$allocator@V?$vector@_KV?$allocator@_K@std@@@std@@@2@XZ 0000000180000000     collisioncodegen_api.obj
 0002:fffd0000       $unwind$?_Getal@?$vector@_KV?$allocator@_K@std@@@std@@AEAAAEAV?$allocator@_K@2@XZ 0000000180000000     collisioncodegen_api.obj
 0002:fffd0000       $unwind$?_Getal@?$vector@_KV?$allocator@_K@std@@@std@@AEBAAEBV?$allocator@_K@2@XZ 0000000180000000     collisioncodegen_api.obj
 0002:fffd0000       $unwind$?_Throw_bad_array_new_length@std@@YAXXZ 0000000180000000     collisioncodegen_api.obj
 0002:fffd0000       $unwind$?_Tidy@?$vector@U_ccd_vec3_t@@V?$allocator@U_ccd_vec3_t@@@std@@@std@@AEAAXXZ 0000000180000000     collisioncodegen_api.obj
 0002:fffd0000       $unwind$?_Tidy@?$vector@U_idx_vec3_t@shared_robotics@@V?$allocator@U_idx_vec3_t@shared_robotics@@@std@@@std@@AEAAXXZ 0000000180000000     collisioncodegen_api.obj
 0002:fffd0000       $unwind$?_Tidy@?$vector@V?$vector@_KV?$allocator@_K@std@@@std@@V?$allocator@V?$vector@_KV?$allocator@_K@std@@@std@@@2@@std@@AEAAXXZ 0000000180000000     collisioncodegen_api.obj
 0002:fffd0000       $unwind$?_Tidy@?$vector@_KV?$allocator@_K@std@@@std@@AEAAXXZ 0000000180000000     collisioncodegen_api.obj
 0002:fffd0000       $unwind$?_Xlength@?$vector@V?$vector@_KV?$allocator@_K@std@@@std@@V?$allocator@V?$vector@_KV?$allocator@_K@std@@@std@@@2@@std@@CAXXZ 0000000180000000     collisioncodegen_api.obj
 0002:fffd0000       $unwind$?_Xlength@?$vector@_KV?$allocator@_K@std@@@std@@CAXXZ 0000000180000000     collisioncodegen_api.obj
 0002:fffd0000       $unwind$?allocate@?$allocator@V?$vector@_KV?$allocator@_K@std@@@std@@@std@@QEAAPEAV?$vector@_KV?$allocator@_K@std@@@2@_K@Z 0000000180000000     collisioncodegen_api.obj
 0002:fffd0000       $unwind$?allocate@?$allocator@_K@std@@QEAAPEA_K_K@Z 0000000180000000     collisioncodegen_api.obj
 0002:fffd0000       $unwind$?deallocate@?$allocator@U_ccd_vec3_t@@@std@@QEAAXQEAU_ccd_vec3_t@@_K@Z 0000000180000000     collisioncodegen_api.obj
 0002:fffd0000       $unwind$?deallocate@?$allocator@U_idx_vec3_t@shared_robotics@@@std@@QEAAXQEAU_idx_vec3_t@shared_robotics@@_K@Z 0000000180000000     collisioncodegen_api.obj
 0002:fffd0000       $unwind$?deallocate@?$allocator@V?$vector@_KV?$allocator@_K@std@@@std@@@std@@QEAAXQEAV?$vector@_KV?$allocator@_K@std@@@2@_K@Z 0000000180000000     collisioncodegen_api.obj
 0002:fffd0000       $unwind$?deallocate@?$allocator@_K@std@@QEAAXQEA_K_K@Z 0000000180000000     collisioncodegen_api.obj
 0002:fffd0000       $unwind$?length@?$_Narrow_char_traits@DH@std@@SA_KQEBD@Z 0000000180000000     collisioncodegen_api.obj
 0002:fffd0000       $unwind$?max_size@?$vector@V?$vector@_KV?$allocator@_K@std@@@std@@V?$allocator@V?$vector@_KV?$allocator@_K@std@@@std@@@2@@std@@QEBA_KXZ 0000000180000000     collisioncodegen_api.obj
 0002:fffd0000       $unwind$?max_size@?$vector@_KV?$allocator@_K@std@@@std@@QEBA_KXZ 0000000180000000     collisioncodegen_api.obj
 0002:fffd0000       $unwind$?what@exception@std@@UEBAPEBDXZ 0000000180000000     collisioncodegen_api.obj
 0000:00000000       _volmd                     0000000180000000     collisioncodegen_api.obj
 0000:00000000       _volmd                     0000000180000000     collisioncodegen_api.obj
 0000:00000000       _volmd                     0000000180000000     collisioncodegen_api.obj
 0000:00000000       _volmd                     0000000180000000     collisioncodegen_ccdExtensions.obj
 0000:00000000       _volmd                     0000000180000000     collisioncodegen_checkCollision.obj
 0000:00000000       _volmd                     0000000180000000     m_nM5NMYJUCkhQa81HtyaWRC.obj
 0000:00000000       .debug$S                   0000000180000000     libmwblas:libmwblas.dll
 0000:00000000       .debug$S                   0000000180000000     ucrt:api-ms-win-crt-heap-l1-1-0.dll
 0000:00000000       .debug$S                   0000000180000000     ucrt:api-ms-win-crt-heap-l1-1-0.dll
 0000:00000000       .debug$S                   0000000180000000     ucrt:api-ms-win-crt-heap-l1-1-0.dll
 0000:00000000       .debug$S                   0000000180000000     ucrt:api-ms-win-crt-heap-l1-1-0.dll
 0000:00000000       .debug$S                   0000000180000000     ucrt:api-ms-win-crt-heap-l1-1-0.dll
 0000:00000000       .debug$S                   0000000180000000     ucrt:api-ms-win-crt-math-l1-1-0.dll
 0000:00000000       .debug$S                   0000000180000000     ucrt:api-ms-win-crt-math-l1-1-0.dll
 0000:00000000       .debug$S                   0000000180000000     ucrt:api-ms-win-crt-math-l1-1-0.dll
 0000:00000000       .debug$S                   0000000180000000     ucrt:api-ms-win-crt-runtime-l1-1-0.dll
 0000:00000000       .debug$S                   0000000180000000     ucrt:api-ms-win-crt-runtime-l1-1-0.dll
 0000:00000000       .debug$S                   0000000180000000     ucrt:api-ms-win-crt-runtime-l1-1-0.dll
 0000:00000000       .debug$S                   0000000180000000     ucrt:api-ms-win-crt-runtime-l1-1-0.dll
 0000:00000000       .debug$S                   0000000180000000     ucrt:api-ms-win-crt-runtime-l1-1-0.dll
 0000:00000000       .debug$S                   0000000180000000     ucrt:api-ms-win-crt-runtime-l1-1-0.dll
 0000:00000000       .debug$S                   0000000180000000     ucrt:api-ms-win-crt-runtime-l1-1-0.dll
 0000:00000000       .debug$S                   0000000180000000     ucrt:api-ms-win-crt-runtime-l1-1-0.dll
 0000:00000000       .debug$S                   0000000180000000     ucrt:api-ms-win-crt-runtime-l1-1-0.dll
 0000:00000000       .debug$S                   0000000180000000     ucrt:api-ms-win-crt-runtime-l1-1-0.dll
 0000:00000000       .debug$S                   0000000180000000     ucrt:api-ms-win-crt-runtime-l1-1-0.dll
 0000:00000000       .debug$S                   0000000180000000     ucrt:api-ms-win-crt-runtime-l1-1-0.dll
 0000:00000000       .debug$S                   0000000180000000     ucrt:api-ms-win-crt-runtime-l1-1-0.dll
 0000:00000000       .debug$S                   0000000180000000     ucrt:api-ms-win-crt-stdio-l1-1-0.dll
 0000:00000000       .debug$S                   0000000180000000     ucrt:api-ms-win-crt-stdio-l1-1-0.dll
 0000:00000000       .debug$S                   0000000180000000     ucrt:api-ms-win-crt-stdio-l1-1-0.dll
 0000:00000000       .debug$S                   0000000180000000     ucrt:api-ms-win-crt-stdio-l1-1-0.dll
 0000:00000000       .debug$S                   0000000180000000     ucrt:api-ms-win-crt-string-l1-1-0.dll
 0000:00000000       .debug$S                   0000000180000000     ucrt:api-ms-win-crt-string-l1-1-0.dll
 0000:00000000       .debug$S                   0000000180000000     ucrt:api-ms-win-crt-string-l1-1-0.dll
 0000:00000000       .debug$S                   0000000180000000     ucrt:api-ms-win-crt-utility-l1-1-0.dll
 0000:00000000       .debug$S                   0000000180000000     kernel32:KERNEL32.dll
 0000:00000000       .debug$S                   0000000180000000     kernel32:KERNEL32.dll
 0000:00000000       .debug$S                   0000000180000000     kernel32:KERNEL32.dll
 0000:00000000       .debug$S                   0000000180000000     kernel32:KERNEL32.dll
 0000:00000000       .debug$S                   0000000180000000     kernel32:KERNEL32.dll
 0000:00000000       .debug$S                   0000000180000000     kernel32:KERNEL32.dll
 0000:00000000       .debug$S                   0000000180000000     kernel32:KERNEL32.dll
 0000:00000000       .debug$S                   0000000180000000     kernel32:KERNEL32.dll
 0000:00000000       .debug$S                   0000000180000000     kernel32:KERNEL32.dll
 0000:00000000       .debug$S                   0000000180000000     kernel32:KERNEL32.dll
 0000:00000000       .debug$S                   0000000180000000     kernel32:KERNEL32.dll
 0000:00000000       .debug$S                   0000000180000000     kernel32:KERNEL32.dll
 0000:00000000       .debug$S                   0000000180000000     kernel32:KERNEL32.dll
 0000:00000000       .debug$S                   0000000180000000     kernel32:KERNEL32.dll
 0000:00000000       .debug$S                   0000000180000000     kernel32:KERNEL32.dll
 0000:00000000       .debug$S                   0000000180000000     kernel32:KERNEL32.dll
 0000:00000000       .debug$S                   0000000180000000     kernel32:KERNEL32.dll
 0000:00000000       .debug$S                   0000000180000000     libemlrt:libemlrt.dll
 0000:00000000       .debug$S                   0000000180000000     libemlrt:libemlrt.dll
 0000:00000000       .debug$S                   0000000180000000     libemlrt:libemlrt.dll
 0000:00000000       .debug$S                   0000000180000000     libemlrt:libemlrt.dll
 0000:00000000       .debug$S                   0000000180000000     libemlrt:libemlrt.dll
 0000:00000000       .debug$S                   0000000180000000     libemlrt:libemlrt.dll
 0000:00000000       .debug$S                   0000000180000000     libemlrt:libemlrt.dll
 0000:00000000       .debug$S                   0000000180000000     libemlrt:libemlrt.dll
 0000:00000000       .debug$S                   0000000180000000     libemlrt:libemlrt.dll
 0000:00000000       .debug$S                   0000000180000000     libemlrt:libemlrt.dll
 0000:00000000       .debug$S                   0000000180000000     libemlrt:libemlrt.dll
 0000:00000000       .debug$S                   0000000180000000     libemlrt:libemlrt.dll
 0000:00000000       .debug$S                   0000000180000000     libemlrt:libemlrt.dll
 0000:00000000       .debug$S                   0000000180000000     libemlrt:libemlrt.dll
 0000:00000000       .debug$S                   0000000180000000     libemlrt:libemlrt.dll
 0000:00000000       .debug$S                   0000000180000000     libemlrt:libemlrt.dll
 0000:00000000       .debug$S                   0000000180000000     libmex:libmex.dll
 0000:00000000       .debug$S                   0000000180000000     libmex:libmex.dll
 0000:00000000       .debug$S                   0000000180000000     libmex:libmex.dll
 0000:00000000       .debug$S                   0000000180000000     libmex:libmex.dll
 0000:00000000       .debug$S                   0000000180000000     libmex:libmex.dll
 0000:00000000       .debug$S                   0000000180000000     libmwcgxert:libmwcgxert.dll
 0000:00000000       .debug$S                   0000000180000000     libmwcgxert:libmwcgxert.dll
 0000:00000000       .debug$S                   0000000180000000     libmwcgxert:libmwcgxert.dll
 0000:00000000       .debug$S                   0000000180000000     libmwcgxert:libmwcgxert.dll
 0000:00000000       .debug$S                   0000000180000000     libmwcgxert:libmwcgxert.dll
 0000:00000000       .debug$S                   0000000180000000     libmwcgxert:libmwcgxert.dll
 0000:00000000       .debug$S                   0000000180000000     libmwcgxert:libmwcgxert.dll
 0000:00000000       .debug$S                   0000000180000000     libmwcgxert:libmwcgxert.dll
 0000:00000000       .debug$S                   0000000180000000     libmwmathutil:libmwmathutil.dll
 0000:00000000       .debug$S                   0000000180000000     libmwmathutil:libmwmathutil.dll
 0000:00000000       .debug$S                   0000000180000000     libmwmathutil:libmwmathutil.dll
 0000:00000000       .debug$S                   0000000180000000     libmwmathutil:libmwmathutil.dll
 0000:00000000       .debug$S                   0000000180000000     libmwmathutil:libmwmathutil.dll
 0000:00000000       .debug$S                   0000000180000000     libmwmathutil:libmwmathutil.dll
 0000:00000000       .debug$S                   0000000180000000     libmx:libmx.dll
 0000:00000000       .debug$S                   0000000180000000     libmx:libmx.dll
 0000:00000000       .debug$S                   0000000180000000     libmx:libmx.dll
 0000:00000000       .debug$S                   0000000180000000     libmx:libmx.dll
 0000:00000000       .debug$S                   0000000180000000     libmx:libmx.dll
 0000:00000000       .debug$S                   0000000180000000     libmx:libmx.dll
 0000:00000000       .debug$S                   0000000180000000     libmx:libmx.dll
 0000:00000000       .debug$S                   0000000180000000     libmx:libmx.dll
 0000:00000000       .debug$S                   0000000180000000     libmx:libmx.dll
 0000:00000000       .debug$S                   0000000180000000     libmx:libmx.dll
 0000:00000000       .debug$S                   0000000180000000     libmx:libmx.dll
 0000:00000000       .debug$S                   0000000180000000     libmx:libmx.dll
 0000:00000000       .debug$S                   0000000180000000     libmx:libmx.dll
 0000:00000000       .debug$S                   0000000180000000     libmx:libmx.dll
 0000:00000000       .debug$S                   0000000180000000     libmx:libmx.dll
 0000:00000000       .debug$S                   0000000180000000     libmx:libmx.dll
 0000:00000000       .debug$S                   0000000180000000     libmx:libmx.dll
 0000:00000000       .debug$S                   0000000180000000     libmx:libmx.dll
 0000:00000000       .debug$S                   0000000180000000     libmx:libmx.dll
 0000:00000000       .debug$S                   0000000180000000     libmx:libmx.dll
 0000:00000000       _volmd                     0000000180000000     MSVCRT:cpu_disp.obj
 0002:fffd0000       __guard_ehcont_?dllmain_dispatch@@YAHQEAUHINSTANCE__@@KQEAX@Z 0000000180000000     MSVCRT:dll_dllmain.obj
 0002:fffd0000       __guard_fids_?dllmain_dispatch@@YAHQEAUHINSTANCE__@@KQEAX@Z 0000000180000000     MSVCRT:dll_dllmain.obj
 0000:00000000       _volmd                     0000000180000000     MSVCRT:gs_report.obj
 0000:00000000       _volmd                     0000000180000000     MSVCRT:gs_report.obj
 0000:00000000       _volmd                     0000000180000000     MSVCRT:gs_report.obj
 0002:fffd0000       __guard_fids__             0000000180000000     MSVCRT:guard_support.obj
 0002:fffd0000       __guard_fids__             0000000180000000     MSVCRT:guard_support.obj
 0002:fffd0000       __guard_fids__guard_icall_checks_enforced 0000000180000000     MSVCRT:guard_support.obj
 0000:00000000       _volmd                     0000000180000000     MSVCRT:guard_support.obj
 0000:00000000       _volmd                     0000000180000000     MSVCRT:guard_support.obj
 0000:00000000       _volmd                     0000000180000000     MSVCRT:guard_support.obj
 0000:00000000       _volmd                     0000000180000000     MSVCRT:guard_support.obj
 0000:00000000       _volmd                     0000000180000000     MSVCRT:guard_support.obj
 0000:00000000       _volmd                     0000000180000000     MSVCRT:guard_support.obj
 0000:00000000       _volmd                     0000000180000000     MSVCRT:guard_support.obj
 0000:00000000       _volmd                     0000000180000000     MSVCRT:guard_support.obj
 0000:00000000       _volmd                     0000000180000000     MSVCRT:guard_support.obj
 0000:00000000       _volmd                     0000000180000000     MSVCRT:guard_support.obj
 0002:fffd0000       __guard_fids__             0000000180000000     MSVCRT:std_type_info_static.obj
 0002:fffd0000       $unwind$??0bad_alloc@std@@QEAA@AEBV01@@Z 0000000180000000     MSVCRT:throw_bad_alloc.obj
 0002:fffd0000       $unwind$??0bad_array_new_length@std@@QEAA@AEBV01@@Z 0000000180000000     MSVCRT:throw_bad_alloc.obj
 0002:fffd0000       $unwind$??0exception@std@@QEAA@AEBV01@@Z 0000000180000000     MSVCRT:throw_bad_alloc.obj
 0002:fffd0000       $unwind$??_Gbad_alloc@std@@UEAAPEAXI@Z 0000000180000000     MSVCRT:throw_bad_alloc.obj
 0002:fffd0000       $unwind$??_Gbad_array_new_length@std@@UEAAPEAXI@Z 0000000180000000     MSVCRT:throw_bad_alloc.obj
 0002:fffd0000       $unwind$??_Gexception@std@@UEAAPEAXI@Z 0000000180000000     MSVCRT:throw_bad_alloc.obj
 0002:fffd0000       __guard_fids__             0000000180000000     MSVCRT:throw_bad_alloc.obj
 0002:fffd0000       __guard_fids__             0000000180000000     MSVCRT:throw_bad_alloc.obj
 0002:fffd0000       __guard_fids__             0000000180000000     MSVCRT:throw_bad_alloc.obj
 0002:fffd0000       __guard_ehcont___scrt_is_nonwritable_in_current_image 0000000180000000     MSVCRT:utility.obj
 0000:00000000       _volmd                     0000000180000000     MSVCRT:utility.obj
 0000:00000000       _volmd                     0000000180000000     MSVCRT:utility.obj
 0000:00000000       _volmd                     0000000180000000     MSVCRT:utility.obj
 0002:fffd0000       __guard_fids___scrt_set_unhandled_exception_filter 0000000180000000     MSVCRT:utility_desktop.obj
 0000:00000000       _volmd                     0000000180000000     MSVCRT:utility_desktop.obj
 0000:00000000       .debug$S                   0000000180000000     msvcprt:MSVCP140.dll
 0000:00000000       .debug$S                   0000000180000000     msvcprt:MSVCP140.dll
 0000:00000000       .debug$S                   0000000180000000     msvcprt:MSVCP140.dll
 0000:00000000       .debug$S                   0000000180000000     msvcprt:MSVCP140.dll
 0000:00000000       .debug$S                   0000000180000000     msvcprt:MSVCP140.dll
 0000:00000000       .debug$S                   0000000180000000     msvcprt:MSVCP140.dll
 0000:00000000       .debug$S                   0000000180000000     msvcprt:MSVCP140.dll
 0000:00000000       .debug$S                   0000000180000000     msvcprt:MSVCP140.dll
 0000:00000000       .debug$S                   0000000180000000     msvcprt:MSVCP140.dll
 0000:00000000       .debug$S                   0000000180000000     msvcprt:MSVCP140.dll
 0000:00000000       .debug$S                   0000000180000000     msvcprt:MSVCP140.dll
 0000:00000000       .debug$S                   0000000180000000     msvcprt:MSVCP140.dll
 0000:00000000       .debug$S                   0000000180000000     msvcprt:MSVCP140.dll
 0000:00000000       .debug$S                   0000000180000000     msvcprt:MSVCP140.dll
 0000:00000000       .debug$S                   0000000180000000     msvcprt:MSVCP140.dll
 0000:00000000       .debug$S                   0000000180000000     msvcprt:MSVCP140.dll
 0000:00000000       .debug$S                   0000000180000000     msvcprt:MSVCP140.dll
 0000:00000000       .debug$S                   0000000180000000     msvcprt:MSVCP140.dll
 0002:fffd0000       __guard_fids__             0000000180000000     vcruntime:softmemtag.obj
 0000:00000000       .debug$S                   0000000180000000     vcruntime:VCRUNTIME140.dll
 0000:00000000       .debug$S                   0000000180000000     vcruntime:VCRUNTIME140.dll
 0000:00000000       .debug$S                   0000000180000000     vcruntime:VCRUNTIME140.dll
 0000:00000000       .debug$S                   0000000180000000     vcruntime:VCRUNTIME140.dll
 0000:00000000       .debug$S                   0000000180000000     vcruntime:VCRUNTIME140.dll
 0000:00000000       .debug$S                   0000000180000000     vcruntime:VCRUNTIME140.dll
 0000:00000000       .debug$S                   0000000180000000     vcruntime:VCRUNTIME140.dll
 0000:00000000       .debug$S                   0000000180000000     vcruntime:VCRUNTIME140.dll
 0000:00000000       .debug$S                   0000000180000000     vcruntime:VCRUNTIME140.dll
 0000:00000000       .debug$S                   0000000180000000     vcruntime:VCRUNTIME140.dll
 0000:00000000       .debug$S                   0000000180000000     vcruntime:VCRUNTIME140_1.dll
 0000:00000010       _volmd                     0000000180000010     SCARA_Control_System_cgxe_registry.obj
 0000:00000010       _volmd                     0000000180000010     ccd_ccd.obj
 0000:00000010       _volmd                     0000000180000010     ccd_mpr.obj
 0000:00000010       _volmd                     0000000180000010     ccd_vec3.obj
 0000:00000010       _volmd                     0000000180000010     collisioncodegen_ccdExtensions.obj
 0000:00000010       _volmd                     0000000180000010     m_nM5NMYJUCkhQa81HtyaWRC.obj
 0000:00000020       _volmd                     0000000180000020     SCARA_Control_System_cgxe_registry.obj
 0000:00000020       _volmd                     0000000180000020     ccd_ccd.obj
 0000:00000020       _volmd                     0000000180000020     ccd_mpr.obj
 0000:00000020       _volmd                     0000000180000020     ccd_vec3.obj
 0000:00000020       _volmd                     0000000180000020     collisioncodegen_ccdExtensions.obj
 0000:00000020       _volmd                     0000000180000020     m_nM5NMYJUCkhQa81HtyaWRC.obj
 0000:00000030       _volmd                     0000000180000030     SCARA_Control_System_cgxe_registry.obj
 0000:00000030       _volmd                     0000000180000030     ccd_ccd.obj
 0000:00000030       _volmd                     0000000180000030     ccd_mpr.obj
 0000:00000030       _volmd                     0000000180000030     collisioncodegen_ccdExtensions.obj
 0000:00000030       _volmd                     0000000180000030     m_nM5NMYJUCkhQa81HtyaWRC.obj
 0000:00000040       _volmd                     0000000180000040     SCARA_Control_System_cgxe_registry.obj
 0000:00000040       _volmd                     0000000180000040     ccd_ccd.obj
 0000:00000040       _volmd                     0000000180000040     ccd_mpr.obj
 0000:00000040       _volmd                     0000000180000040     collisioncodegen_ccdExtensions.obj
 0000:00000040       _volmd                     0000000180000040     m_nM5NMYJUCkhQa81HtyaWRC.obj
 0000:00000050       _volmd                     0000000180000050     SCARA_Control_System_cgxe_registry.obj
 0000:00000050       _volmd                     0000000180000050     ccd_ccd.obj
 0000:00000050       _volmd                     0000000180000050     ccd_mpr.obj
 0000:00000050       _volmd                     0000000180000050     m_nM5NMYJUCkhQa81HtyaWRC.obj
 0000:00000060       _volmd                     0000000180000060     SCARA_Control_System_cgxe_registry.obj
 0000:00000060       _volmd                     0000000180000060     ccd_ccd.obj
 0000:00000060       _volmd                     0000000180000060     ccd_mpr.obj
 0000:00000060       _volmd                     0000000180000060     m_nM5NMYJUCkhQa81HtyaWRC.obj
 0000:00000070       _volmd                     0000000180000070     SCARA_Control_System_cgxe_registry.obj
 0000:00000070       _volmd                     0000000180000070     ccd_ccd.obj
 0000:00000070       _volmd                     0000000180000070     ccd_mpr.obj
 0000:00000070       _volmd                     0000000180000070     m_nM5NMYJUCkhQa81HtyaWRC.obj
 0000:00000080       _volmd                     0000000180000080     SCARA_Control_System_cgxe_registry.obj
 0000:00000080       _volmd                     0000000180000080     ccd_ccd.obj
 0000:00000080       _volmd                     0000000180000080     ccd_mpr.obj
 0000:00000080       _volmd                     0000000180000080     m_nM5NMYJUCkhQa81HtyaWRC.obj
 0000:00000090       _volmd                     0000000180000090     SCARA_Control_System_cgxe_registry.obj
 0000:00000090       _volmd                     0000000180000090     ccd_ccd.obj
 0000:00000090       _volmd                     0000000180000090     m_nM5NMYJUCkhQa81HtyaWRC.obj
 0000:000000a0       _volmd                     00000001800000a0     SCARA_Control_System_cgxe_registry.obj
 0000:000000a0       _volmd                     00000001800000a0     ccd_ccd.obj
 0000:000000a0       _volmd                     00000001800000a0     m_nM5NMYJUCkhQa81HtyaWRC.obj
 0000:000000b0       _volmd                     00000001800000b0     SCARA_Control_System_cgxe_registry.obj
 0000:000000b0       _volmd                     00000001800000b0     ccd_ccd.obj
 0000:000000b0       _volmd                     00000001800000b0     m_nM5NMYJUCkhQa81HtyaWRC.obj
 0000:000000c0       _volmd                     00000001800000c0     SCARA_Control_System_cgxe_registry.obj
 0000:000000c0       _volmd                     00000001800000c0     m_nM5NMYJUCkhQa81HtyaWRC.obj
 0000:000000d0       _volmd                     00000001800000d0     SCARA_Control_System_cgxe_registry.obj
 0000:000000d0       _volmd                     00000001800000d0     m_nM5NMYJUCkhQa81HtyaWRC.obj
 0000:000000e0       _volmd                     00000001800000e0     SCARA_Control_System_cgxe_registry.obj
 0000:000000e0       _volmd                     00000001800000e0     m_nM5NMYJUCkhQa81HtyaWRC.obj
 0001:00000120       cgxe_mdl_start             0000000180001120 f   m_nM5NMYJUCkhQa81HtyaWRC.obj
 0001:000001d0       cgxe_mdl_initialize        00000001800011d0 f   m_nM5NMYJUCkhQa81HtyaWRC.obj
 0001:00000270       cgxe_mdl_outputs           0000000180001270 f   m_nM5NMYJUCkhQa81HtyaWRC.obj
 0001:00000310       cgxe_mdl_update            0000000180001310 f   m_nM5NMYJUCkhQa81HtyaWRC.obj
 0001:00000320       cgxe_mdl_enable            0000000180001320 f   m_nM5NMYJUCkhQa81HtyaWRC.obj
 0001:00000330       cgxe_mdl_disable           0000000180001330 f   m_nM5NMYJUCkhQa81HtyaWRC.obj
 0001:00000340       cgxe_mdl_terminate         0000000180001340 f   m_nM5NMYJUCkhQa81HtyaWRC.obj
 0001:000003c0       mw__internal__system__init__fcn 00000001800013c0 f   m_nM5NMYJUCkhQa81HtyaWRC.obj
 0001:00000480       mw__internal__system__terminate__fcn 0000000180001480 f   m_nM5NMYJUCkhQa81HtyaWRC.obj
 0001:00000600       mw__internal__call__setup  0000000180001600 f   m_nM5NMYJUCkhQa81HtyaWRC.obj
 0001:000006f0       SystemCore_setup           00000001800016f0 f   m_nM5NMYJUCkhQa81HtyaWRC.obj
 0001:000009c0       GetJacobianBlock_setupImpl 00000001800019c0 f   m_nM5NMYJUCkhQa81HtyaWRC.obj
 0001:00000d80       RigidBodyTree_defaultInitializeBodiesCellArray 0000000180001d80 f   m_nM5NMYJUCkhQa81HtyaWRC.obj
 0001:000034b0       b_strcmp                   00000001800044b0 f   m_nM5NMYJUCkhQa81HtyaWRC.obj
 0001:00003560       c_strcmp                   0000000180004560 f   m_nM5NMYJUCkhQa81HtyaWRC.obj
 0001:00003610       CollisionSet_CollisionSet  0000000180004610 f   m_nM5NMYJUCkhQa81HtyaWRC.obj
 0001:00003900       RigidBody_RigidBody        0000000180004900 f   m_nM5NMYJUCkhQa81HtyaWRC.obj
 0001:000040e0       b_RigidBody_RigidBody      00000001800050e0 f   m_nM5NMYJUCkhQa81HtyaWRC.obj
 0001:000048c0       c_RigidBody_RigidBody      00000001800058c0 f   m_nM5NMYJUCkhQa81HtyaWRC.obj
 0001:000050a0       d_RigidBody_RigidBody      00000001800060a0 f   m_nM5NMYJUCkhQa81HtyaWRC.obj
 0001:00005880       e_RigidBody_RigidBody      0000000180006880 f   m_nM5NMYJUCkhQa81HtyaWRC.obj
 0001:00006060       f_RigidBody_RigidBody      0000000180007060 f   m_nM5NMYJUCkhQa81HtyaWRC.obj
 0001:000066b0       mw__internal__call__reset  00000001800076b0 f   m_nM5NMYJUCkhQa81HtyaWRC.obj
 0001:00006a10       mw__internal__call__step   0000000180007a10 f   m_nM5NMYJUCkhQa81HtyaWRC.obj
 0001:00008ff0       RigidBodyTree_forwardKinematics 0000000180009ff0 f   m_nM5NMYJUCkhQa81HtyaWRC.obj
 0001:0000aa30       d_strcmp                   000000018000ba30 f   m_nM5NMYJUCkhQa81HtyaWRC.obj
 0001:0000aae0       axang2tform                000000018000bae0 f   m_nM5NMYJUCkhQa81HtyaWRC.obj
 0001:0000b7f0       sumColumnB                 000000018000c7f0 f   m_nM5NMYJUCkhQa81HtyaWRC.obj
 0001:0000b860       e_strcmp                   000000018000c860 f   m_nM5NMYJUCkhQa81HtyaWRC.obj
 0001:0000b910       RigidBody_get_Joint        000000018000c910 f   m_nM5NMYJUCkhQa81HtyaWRC.obj
 0001:0000bbf0       mtimes                     000000018000cbf0 f   m_nM5NMYJUCkhQa81HtyaWRC.obj
 0001:0000be40       handle_matlabCodegenDestructor 000000018000ce40 f   m_nM5NMYJUCkhQa81HtyaWRC.obj
 0001:0000c060       message                    000000018000d060 f   m_nM5NMYJUCkhQa81HtyaWRC.obj
 0001:0000c100       getString                  000000018000d100 f   m_nM5NMYJUCkhQa81HtyaWRC.obj
 0001:0000c170       error                      000000018000d170 f   m_nM5NMYJUCkhQa81HtyaWRC.obj
 0001:0000c200       b_message                  000000018000d200 f   m_nM5NMYJUCkhQa81HtyaWRC.obj
 0001:0000c270       c_message                  000000018000d270 f   m_nM5NMYJUCkhQa81HtyaWRC.obj
 0001:0000c340       RigidBodyTree_validateConfiguration 000000018000d340 f   m_nM5NMYJUCkhQa81HtyaWRC.obj
 0001:0000cf10       emxInitStruct_robotics_slmanip_ 000000018000df10 f   m_nM5NMYJUCkhQa81HtyaWRC.obj
 0001:0000cf40       emxInitStruct_robotics_manip_in 000000018000df40 f   m_nM5NMYJUCkhQa81HtyaWRC.obj
 0001:0000cf80       b_emxInitStruct_robotics_manip_in 000000018000df80 f   m_nM5NMYJUCkhQa81HtyaWRC.obj
 0001:0000cfd0       emxInit_char_T             000000018000dfd0 f   m_nM5NMYJUCkhQa81HtyaWRC.obj
 0001:0000d090       emxInitStruct_rigidBodyJoint 000000018000e090 f   m_nM5NMYJUCkhQa81HtyaWRC.obj
 0001:0000d0d0       emxInit_real_T             000000018000e0d0 f   m_nM5NMYJUCkhQa81HtyaWRC.obj
 0001:0000d190       c_emxInitStruct_robotics_manip_in 000000018000e190 f   m_nM5NMYJUCkhQa81HtyaWRC.obj
 0001:0000d1c0       emxInit_robotics_manip_internal 000000018000e1c0 f   m_nM5NMYJUCkhQa81HtyaWRC.obj
 0001:0000d280       emxInitMatrix_robotics_manip_in 000000018000e280 f   m_nM5NMYJUCkhQa81HtyaWRC.obj
 0001:0000d2d0       emxFree_char_T             000000018000e2d0 f   m_nM5NMYJUCkhQa81HtyaWRC.obj
 0001:0000d350       emxFreeStruct_robotics_manip_in 000000018000e350 f   m_nM5NMYJUCkhQa81HtyaWRC.obj
 0001:0000d3a0       emxFreeStruct_rigidBodyJoint 000000018000e3a0 f   m_nM5NMYJUCkhQa81HtyaWRC.obj
 0001:0000d3e0       emxFree_real_T             000000018000e3e0 f   m_nM5NMYJUCkhQa81HtyaWRC.obj
 0001:0000d460       emxFree_robotics_manip_internal 000000018000e460 f   m_nM5NMYJUCkhQa81HtyaWRC.obj
 0001:0000d4e0       b_emxFreeStruct_robotics_manip_in 000000018000e4e0 f   m_nM5NMYJUCkhQa81HtyaWRC.obj
 0001:0000d510       c_emxFreeStruct_robotics_manip_in 000000018000e510 f   m_nM5NMYJUCkhQa81HtyaWRC.obj
 0001:0000d550       emxFreeMatrix_robotics_manip_in 000000018000e550 f   m_nM5NMYJUCkhQa81HtyaWRC.obj
 0001:0000d5a0       emxFreeStruct_robotics_slmanip_ 000000018000e5a0 f   m_nM5NMYJUCkhQa81HtyaWRC.obj
 0001:0000d5d0       emxEnsureCapacity_char_T   000000018000e5d0 f   m_nM5NMYJUCkhQa81HtyaWRC.obj
 0001:0000d710       emxEnsureCapacity_real_T   000000018000e710 f   m_nM5NMYJUCkhQa81HtyaWRC.obj
 0001:0000d850       emxEnsureCapacity_robotics_mani 000000018000e850 f   m_nM5NMYJUCkhQa81HtyaWRC.obj
 0001:0000d990       emxInit_cell_wrap          000000018000e990 f   m_nM5NMYJUCkhQa81HtyaWRC.obj
 0001:0000da50       emxFree_cell_wrap          000000018000ea50 f   m_nM5NMYJUCkhQa81HtyaWRC.obj
 0001:0000dad0       emxEnsureCapacity_cell_wrap 000000018000ead0 f   m_nM5NMYJUCkhQa81HtyaWRC.obj
 0001:0000dc20       init_simulink_io_address   000000018000ec20 f   m_nM5NMYJUCkhQa81HtyaWRC.obj
 0001:0000dc90       mdlOutputs_nM5NMYJUCkhQa81HtyaWRC 000000018000ec90 f   m_nM5NMYJUCkhQa81HtyaWRC.obj
 0001:0000dcd0       mdlInitialize_nM5NMYJUCkhQa81HtyaWRC 000000018000ecd0 f   m_nM5NMYJUCkhQa81HtyaWRC.obj
 0001:0000dd00       mdlUpdate_nM5NMYJUCkhQa81HtyaWRC 000000018000ed00 f   m_nM5NMYJUCkhQa81HtyaWRC.obj
 0001:0000dd40       mdlTerminate_nM5NMYJUCkhQa81HtyaWRC 000000018000ed40 f   m_nM5NMYJUCkhQa81HtyaWRC.obj
 0001:0000dd80       mdlEnable_nM5NMYJUCkhQa81HtyaWRC 000000018000ed80 f   m_nM5NMYJUCkhQa81HtyaWRC.obj
 0001:0000ddb0       mdlDisable_nM5NMYJUCkhQa81HtyaWRC 000000018000edb0 f   m_nM5NMYJUCkhQa81HtyaWRC.obj
 0001:0000dde0       mdlStart_nM5NMYJUCkhQa81HtyaWRC 000000018000ede0 f   m_nM5NMYJUCkhQa81HtyaWRC.obj
 0001:0000dee0       mdlProcessParameters_nM5NMYJUCkhQa81HtyaWRC 000000018000eee0 f   m_nM5NMYJUCkhQa81HtyaWRC.obj
 0001:0001008c       $LN147                     000000018001108c     SCARA_Control_System_cgxe_registry.obj
 0001:00010ef4       $LN22                      0000000180011ef4     SCARA_Control_System_cgxe_registry.obj
 0001:000115f4       $LN26                      00000001800125f4     SCARA_Control_System_cgxe_registry.obj
 0001:00011cd4       $LN24                      0000000180012cd4     SCARA_Control_System_cgxe_registry.obj
 0001:00012a0c       $LN30                      0000000180013a0c     SCARA_Control_System_cgxe_registry.obj
 0001:000153f0       mdlStart                   00000001800163f0 f   SCARA_Control_System_cgxe_registry.obj
 0001:00015430       mdlInitializeConditions    0000000180016430 f   SCARA_Control_System_cgxe_registry.obj
 0001:00015450       mdlUpdate                  0000000180016450 f   SCARA_Control_System_cgxe_registry.obj
 0001:00015480       mdlOutputs                 0000000180016480 f   SCARA_Control_System_cgxe_registry.obj
 0001:000154b0       mdlTerminate               00000001800164b0 f   SCARA_Control_System_cgxe_registry.obj
 0001:000154d0       mdlInitializeSizes         00000001800164d0 f   SCARA_Control_System_cgxe_registry.obj
 0001:000154e0       mdlInitializeSampleTimes   00000001800164e0 f   SCARA_Control_System_cgxe_registry.obj
 0001:000154f0       cgxe_get_supported_modules 00000001800164f0 f   SCARA_Control_System_cgxe_registry.obj
 0001:000155c0       cgxe_process_get_checksums 00000001800165c0 f   SCARA_Control_System_cgxe_registry.obj
 0001:00015950       cgxe_mex_unlock_call       0000000180016950 f   SCARA_Control_System_cgxe_registry.obj
 0001:00015990       cgxe_unpack_simstruct      0000000180016990 f   SCARA_Control_System_cgxe_registry.obj
 0001:00015a30       cgxe_get_sim_state         0000000180016a30 f   SCARA_Control_System_cgxe_registry.obj
 0001:00015aa0       cgxe_set_sim_state         0000000180016aa0 f   SCARA_Control_System_cgxe_registry.obj
 0001:00015b20       cgxe_get_BuildInfoUpdate   0000000180016b20 f   SCARA_Control_System_cgxe_registry.obj
 0001:00015bf0       cgxe_get_fallback_info     0000000180016bf0 f   SCARA_Control_System_cgxe_registry.obj
 0001:00015cc0       ProcessMexSfunctionCmdLineCall 0000000180016cc0 f   SCARA_Control_System_cgxe_registry.obj
 0001:00015ef0       mdlZeroCrossings           0000000180016ef0 f   SCARA_Control_System_cgxe_registry.obj
 0001:00015f40       mdlGetTimeOfNextVarHit     0000000180016f40 f   SCARA_Control_System_cgxe_registry.obj
 0001:00015f90       _RegNumInputPortsCB        0000000180016f90 f   SCARA_Control_System_cgxe_registry.obj
 0001:00016010       _RegNumOutputPortsCB       0000000180017010 f   SCARA_Control_System_cgxe_registry.obj
 0001:00016090       _CreateSimStruct           0000000180017090 f   SCARA_Control_System_cgxe_registry.obj
 0001:000162c0       _ProcessMexSfunctionCmdLineCall 00000001800172c0 f   SCARA_Control_System_cgxe_registry.obj
 0001:00016c50       ReportIndexOutOfBoundsError 0000000180017c50 f   SCARA_Control_System_cgxe_registry.obj
 0001:00016f50       ccdSign                    0000000180017f50 f   ccd_ccd.obj
 0001:00016fa0       ccdIsZero                  0000000180017fa0 f   ccd_ccd.obj
 0001:00016ff0       ccdEq                      0000000180017ff0 f   ccd_ccd.obj
 0001:000170e0       ccdVec3X                   00000001800180e0 f   ccd_ccd.obj
 0001:00017100       ccdVec3Y                   0000000180018100 f   ccd_ccd.obj
 0001:00017120       ccdVec3Z                   0000000180018120 f   ccd_ccd.obj
 0001:00017140       ccdVec3Eq                  0000000180018140 f   ccd_ccd.obj
 0001:000171f0       ccdVec3Len2                00000001800181f0 f   ccd_ccd.obj
 0001:00017220       ccdVec3Set                 0000000180018220 f   ccd_ccd.obj
 0001:00017290       ccdVec3Copy                0000000180018290 f   ccd_ccd.obj
 0001:000172c0       ccdVec3Add                 00000001800182c0 f   ccd_ccd.obj
 0001:00017380       ccdVec3Sub2                0000000180018380 f   ccd_ccd.obj
 0001:00017450       ccdVec3Scale               0000000180018450 f   ccd_ccd.obj
 0001:000174f0       ccdVec3Normalize           00000001800184f0 f   ccd_ccd.obj
 0001:00017540       ccdVec3Dot                 0000000180018540 f   ccd_ccd.obj
 0001:00017600       ccdVec3Cross               0000000180018600 f   ccd_ccd.obj
 0001:00017750       ccdSupportCopy             0000000180018750 f   ccd_ccd.obj
 0001:00017780       ccdSimplexInit             0000000180018780 f   ccd_ccd.obj
 0001:000177a0       ccdSimplexSize             00000001800187a0 f   ccd_ccd.obj
 0001:000177c0       ccdSimplexLast             00000001800187c0 f   ccd_ccd.obj
 0001:000177f0       ccdSimplexPoint            00000001800187f0 f   ccd_ccd.obj
 0001:00017820       ccdSimplexAdd              0000000180018820 f   ccd_ccd.obj
 0001:00017880       ccdSimplexSet              0000000180018880 f   ccd_ccd.obj
 0001:000178c0       ccdSimplexSetSize          00000001800188c0 f   ccd_ccd.obj
 0001:00017df0       ccdListDel                 0000000180018df0 f   ccd_ccd.obj
 0001:00017e40       ccdPtFaceVec3              0000000180018e40 f   ccd_ccd.obj
 0001:00017fa0       ccdPtFaceEdges             0000000180018fa0 f   ccd_ccd.obj
 0001:00018010       ccdPtEdgeVec3              0000000180019010 f   ccd_ccd.obj
 0001:00018070       ccdPtEdgeVertices          0000000180019070 f   ccd_ccd.obj
 0001:000180c0       ccdPtEdgeFaces             00000001800190c0 f   ccd_ccd.obj
 0001:00018110       ccdPtDelEdge               0000000180019110 f   ccd_ccd.obj
 0001:000181c0       ccdPtDelFace               00000001800191c0 f   ccd_ccd.obj
 0001:000182b0       __ccdGJKEPA                00000001800192b0 f   ccd_ccd.obj
 0001:000184e0       doSimplex                  00000001800194e0 f   ccd_ccd.obj
 0001:00018550       doSimplex2                 0000000180019550 f   ccd_ccd.obj
 0001:000186c0       doSimplex3                 00000001800196c0 f   ccd_ccd.obj
 0001:00018b00       doSimplex4                 0000000180019b00 f   ccd_ccd.obj
 0001:00019020       tripleCross                000000018001a020 f   ccd_ccd.obj
 0001:00019090       simplexToPolytope4         000000018001a090 f   ccd_ccd.obj
 0001:00019610       simplexToPolytope3         000000018001a610 f   ccd_ccd.obj
 0001:00019e30       simplexToPolytope2         000000018001ae30 f   ccd_ccd.obj
 0001:0001a8b0       expandPolytope             000000018001b8b0 f   ccd_ccd.obj
 0001:0001b490       nextSupport                000000018001c490 f   ccd_ccd.obj
 0001:0001b600       penEPAPosCmp               000000018001c600 f   ccd_ccd.obj
 0001:0001b680       penEPAPos                  000000018001c680 f   ccd_ccd.obj
 0001:0001b880       ccdIsZero                  000000018001c880 f   ccd_mpr.obj
 0001:0001b8d0       ccdEq                      000000018001c8d0 f   ccd_mpr.obj
 0001:0001b9c0       ccdVec3X                   000000018001c9c0 f   ccd_mpr.obj
 0001:0001b9e0       ccdVec3Y                   000000018001c9e0 f   ccd_mpr.obj
 0001:0001ba00       ccdVec3Z                   000000018001ca00 f   ccd_mpr.obj
 0001:0001ba20       ccdVec3Eq                  000000018001ca20 f   ccd_mpr.obj
 0001:0001bad0       ccdVec3Len2                000000018001cad0 f   ccd_mpr.obj
 0001:0001bb00       ccdVec3Set                 000000018001cb00 f   ccd_mpr.obj
 0001:0001bb70       ccdVec3Copy                000000018001cb70 f   ccd_mpr.obj
 0001:0001bba0       ccdVec3Add                 000000018001cba0 f   ccd_mpr.obj
 0001:0001bc60       ccdVec3Sub2                000000018001cc60 f   ccd_mpr.obj
 0001:0001bd30       ccdVec3Scale               000000018001cd30 f   ccd_mpr.obj
 0001:0001bdd0       ccdVec3Normalize           000000018001cdd0 f   ccd_mpr.obj
 0001:0001be20       ccdVec3Dot                 000000018001ce20 f   ccd_mpr.obj
 0001:0001bee0       ccdVec3Cross               000000018001cee0 f   ccd_mpr.obj
 0001:0001c030       ccdSupportCopy             000000018001d030 f   ccd_mpr.obj
 0001:0001c060       ccdSimplexSize             000000018001d060 f   ccd_mpr.obj
 0001:0001c080       ccdSimplexPoint            000000018001d080 f   ccd_mpr.obj
 0001:0001c0b0       ccdSimplexPointW           000000018001d0b0 f   ccd_mpr.obj
 0001:0001c0e0       ccdSimplexSet              000000018001d0e0 f   ccd_mpr.obj
 0001:0001c120       ccdSimplexSetSize          000000018001d120 f   ccd_mpr.obj
 0001:0001c150       ccdSimplexSwap             000000018001d150 f   ccd_mpr.obj
 0001:0001c4a0       findOrigin                 000000018001d4a0 f   ccd_mpr.obj
 0001:0001c530       discoverPortal             000000018001d530 f   ccd_mpr.obj
 0001:0001cbe0       refinePortal               000000018001dbe0 f   ccd_mpr.obj
 0001:0001cd00       findPenetr                 000000018001dd00 f   ccd_mpr.obj
 0001:0001cf00       findPenetrTouch            000000018001df00 f   ccd_mpr.obj
 0001:0001cfa0       findPenetrSegment          000000018001dfa0 f   ccd_mpr.obj
 0001:0001d060       findPos                    000000018001e060 f   ccd_mpr.obj
 0001:0001d5c0       expandPortal               000000018001e5c0 f   ccd_mpr.obj
 0001:0001d710       portalDir                  000000018001e710 f   ccd_mpr.obj
 0001:0001d7f0       portalEncapsulesOrigin     000000018001e7f0 f   ccd_mpr.obj
 0001:0001d860       portalReachTolerance       000000018001e860 f   ccd_mpr.obj
 0001:0001d9c0       portalCanEncapsuleOrigin   000000018001e9c0 f   ccd_mpr.obj
 0001:0001da30       ccdEq                      000000018001ea30 f   ccd_polytope.obj
 0001:0001db20       ccdVec3X                   000000018001eb20 f   ccd_polytope.obj
 0001:0001db40       ccdVec3Y                   000000018001eb40 f   ccd_polytope.obj
 0001:0001db60       ccdVec3Z                   000000018001eb60 f   ccd_polytope.obj
 0001:0001db80       ccdVec3Len2                000000018001eb80 f   ccd_polytope.obj
 0001:0001dbb0       ccdVec3Copy                000000018001ebb0 f   ccd_polytope.obj
 0001:0001dbe0       ccdVec3Dot                 000000018001ebe0 f   ccd_polytope.obj
 0001:0001dca0       ccdSupportCopy             000000018001eca0 f   ccd_polytope.obj
 0001:0001dcd0       ccdListInit                000000018001ecd0 f   ccd_polytope.obj
 0001:0001dd00       ccdListEmpty               000000018001ed00 f   ccd_polytope.obj
 0001:0001dd40       ccdListAppend              000000018001ed40 f   ccd_polytope.obj
 0001:0001dd90       ccdListDel                 000000018001ed90 f   ccd_polytope.obj
 0001:0001e4f0       ccdPtDelVertex             000000018001f4f0 f   ccd_polytope.obj
 0001:0001e570       ccdPtDelEdge               000000018001f570 f   ccd_polytope.obj
 0001:0001e620       ccdPtDelFace               000000018001f620 f   ccd_polytope.obj
 0001:0001eda0       _ccdPtNearestUpdate        000000018001fda0 f   ccd_polytope.obj
 0001:0001ee70       _ccdPtNearestRenew         000000018001fe70 f   ccd_polytope.obj
 0001:0001f030       ccdIsZero                  0000000180020030 f   ccd_vec3.obj
 0001:0001f080       ccdEq                      0000000180020080 f   ccd_vec3.obj
 0001:0001f170       ccdVec3Len2                0000000180020170 f   ccd_vec3.obj
 0001:0001f1a0       ccdVec3Dist2               00000001800201a0 f   ccd_vec3.obj
 0001:0001f200       ccdVec3Copy                0000000180020200 f   ccd_vec3.obj
 0001:0001f230       ccdVec3Add                 0000000180020230 f   ccd_vec3.obj
 0001:0001f2f0       ccdVec3Sub2                00000001800202f0 f   ccd_vec3.obj
 0001:0001f3c0       ccdVec3Scale               00000001800203c0 f   ccd_vec3.obj
 0001:0001f460       ccdVec3Dot                 0000000180020460 f   ccd_vec3.obj
 0001:0001fa60       __ccdVec3PointSegmentDist2 0000000180020a60 f   ccd_vec3.obj
 0001:0001fc70       ccdVec3X                   0000000180020c70 f   collisioncodegen_CollisionGeometry.obj
 0001:0001fc90       ccdVec3Y                   0000000180020c90 f   collisioncodegen_CollisionGeometry.obj
 0001:0001fcb0       ccdVec3Z                   0000000180020cb0 f   collisioncodegen_CollisionGeometry.obj
 0001:0001fcd0       ccdVec3Len2                0000000180020cd0 f   collisioncodegen_CollisionGeometry.obj
 0001:0001fd00       ccdVec3Set                 0000000180020d00 f   collisioncodegen_CollisionGeometry.obj
 0001:0001fd70       ccdVec3Copy                0000000180020d70 f   collisioncodegen_CollisionGeometry.obj
 0001:0001fda0       ccdVec3Add                 0000000180020da0 f   collisioncodegen_CollisionGeometry.obj
 0001:0001fe60       ccdVec3Scale               0000000180020e60 f   collisioncodegen_CollisionGeometry.obj
 0001:0001ff00       ccdVec3Dot                 0000000180020f00 f   collisioncodegen_CollisionGeometry.obj
 0001:0001ffc0       ccdQuatLen2                0000000180020fc0 f   collisioncodegen_CollisionGeometry.obj
 0001:000200b0       ccdQuatCopy                00000001800210b0 f   collisioncodegen_CollisionGeometry.obj
 0001:000200e0       ccdQuatInvert              00000001800210e0 f   collisioncodegen_CollisionGeometry.obj
 0001:00020200       ccdQuatInvert2             0000000180021200 f   collisioncodegen_CollisionGeometry.obj
 0001:00020240       ccdQuatRotVec              0000000180021240 f   collisioncodegen_CollisionGeometry.obj
 0001:00021064       $LN25                      0000000180022064     collisioncodegen_CollisionGeometry.obj
 0001:00026a20       ccdVec3Set                 0000000180027a20 f   collisioncodegen_api.obj
 0001:0002a350       ccdEq                      000000018002b350 f   collisioncodegen_ccdExtensions.obj
 0001:0002a440       ccdVec3X                   000000018002b440 f   collisioncodegen_ccdExtensions.obj
 0001:0002a460       ccdVec3Y                   000000018002b460 f   collisioncodegen_ccdExtensions.obj
 0001:0002a480       ccdVec3Z                   000000018002b480 f   collisioncodegen_ccdExtensions.obj
 0001:0002a4a0       ccdVec3Eq                  000000018002b4a0 f   collisioncodegen_ccdExtensions.obj
 0001:0002a550       ccdVec3Len2                000000018002b550 f   collisioncodegen_ccdExtensions.obj
 0001:0002a580       ccdVec3Set                 000000018002b580 f   collisioncodegen_ccdExtensions.obj
 0001:0002a5f0       ccdVec3Copy                000000018002b5f0 f   collisioncodegen_ccdExtensions.obj
 0001:0002a620       ccdVec3Add                 000000018002b620 f   collisioncodegen_ccdExtensions.obj
 0001:0002a6e0       ccdVec3Sub2                000000018002b6e0 f   collisioncodegen_ccdExtensions.obj
 0001:0002a7b0       ccdVec3Scale               000000018002b7b0 f   collisioncodegen_ccdExtensions.obj
 0001:0002a850       ccdVec3Dot                 000000018002b850 f   collisioncodegen_ccdExtensions.obj
 0001:0002a910       ccdVec3Cross               000000018002b910 f   collisioncodegen_ccdExtensions.obj
 0001:0002aa60       ccdSimplexSize             000000018002ba60 f   collisioncodegen_ccdExtensions.obj
 0001:0002bf30       ccdVec3Set                 000000018002cf30 f   collisioncodegen_checkCollision.obj
 0001:0002bfa0       ccdQuatSet                 000000018002cfa0 f   collisioncodegen_checkCollision.obj
 0001:0002c460       ?fSupport@@YAXPEBXPEBU_ccd_vec3_t@@PEAU1@@Z 000000018002d460 f   collisioncodegen_checkCollision.obj
 0001:0002c8b0       capture_current_context    000000018002d8b0 f   MSVCRT:gs_report.obj
 0001:0002c920       capture_previous_context   000000018002d920 f   MSVCRT:gs_report.obj
 0001:0002ca10       $$000000                   000000018002da10     MSVCRT:amdsecgs.obj
 0001:0002cb3c       ?dllmain_crt_dispatch@@YAHQEAUHINSTANCE__@@KQEAX@Z 000000018002db3c f   MSVCRT:dll_dllmain.obj
 0001:0002cb8c       ?dllmain_crt_process_attach@@YAHQEAUHINSTANCE__@@QEAX@Z 000000018002db8c f   MSVCRT:dll_dllmain.obj
 0001:0002cca4       ?dllmain_crt_process_detach@@YAH_N@Z 000000018002dca4 f   MSVCRT:dll_dllmain.obj
 0001:0002cd28       ?dllmain_dispatch@@YAHQEAUHINSTANCE__@@KQEAX@Z 000000018002dd28 f   MSVCRT:dll_dllmain.obj
 0001:0002ce5c       ?dllmain_raw@@YAHQEAUHINSTANCE__@@KQEAX@Z 000000018002de5c f   MSVCRT:dll_dllmain.obj
 0001:0002cf28       __get_entropy              000000018002df28 f   MSVCRT:gs_support.obj
 0001:0002d0b8       ?find_pe_section@@YAPEAU_IMAGE_SECTION_HEADER@@QEAE_K@Z 000000018002e0b8 f   MSVCRT:utility.obj
 0001:0002d10c       ?is_potentially_valid_image_base@@YA_NQEAX@Z 000000018002e10c f   MSVCRT:utility.obj
 0001:0002d854       __castguard_check_failure_os_handled_wrapper 000000018002e854 f   MSVCRT:guard_support.obj
 0001:0002d8ac       __castguard_check_failure_user_handled_wrapper 000000018002e8ac f   MSVCRT:guard_support.obj
 0001:0002d8c8       __castguard_compat_check   000000018002e8c8 f   MSVCRT:guard_support.obj
 0001:0002da0c       __castguard_slow_path_compat_check 000000018002ea0c f   MSVCRT:guard_support.obj
 0001:0002ddf0       $$000000                   000000018002edf0     MSVCRT:guard_dispatch.obj
 0001:0002de10       $$000000                   000000018002ee10     MSVCRT:guard_xfg_dispatch.obj
 0001:0002de30       ?dtor$0@?0??support@CollisionGeometry@shared_robotics@@QEBAXPEBU_ccd_vec3_t@@PEAU3@@Z@4HA 000000018002ee30 f   collisioncodegen_CollisionGeometry.obj
 0001:0002de50       ?dtor$0@?0???$?6U?$char_traits@D@std@@@std@@YAAEAV?$basic_ostream@DU?$char_traits@D@std@@@0@AEAV10@PEBD@Z@4HA 000000018002ee50 f   collisioncodegen_CollisionGeometry.obj
 0001:0002de70       ?catch$1@?0???$?6U?$char_traits@D@std@@@std@@YAAEAV?$basic_ostream@DU?$char_traits@D@std@@@0@AEAV10@PEBD@Z@4HA 000000018002ee70 f   collisioncodegen_CollisionGeometry.obj
 0001:0002de7d       __catch$??$?6U?$char_traits@D@std@@@std@@YAAEAV?$basic_ostream@DU?$char_traits@D@std@@@0@AEAV10@PEBD@Z$0 000000018002ee7d f   collisioncodegen_CollisionGeometry.obj
 0001:0002dec0       ?catch$0@?0???$_Emplace_reallocate@AEB_K@?$vector@_KV?$allocator@_K@std@@@std@@AEAAPEA_KQEA_KAEB_K@Z@4HA 000000018002eec0 f   collisioncodegen_CollisionGeometry.obj
 0001:0002decd       __catch$??$_Emplace_reallocate@AEB_K@?$vector@_KV?$allocator@_K@std@@@std@@AEAAPEA_KQEA_KAEB_K@Z$0 000000018002eecd f   collisioncodegen_CollisionGeometry.obj
 0001:0002df10       ?catch$0@?0???$_Emplace_reallocate@N@?$vector@NV?$allocator@N@std@@@std@@AEAAPEANQEAN$$QEAN@Z@4HA 000000018002ef10 f   collisioncodegen_CollisionGeometry.obj
 0001:0002df1d       __catch$??$_Emplace_reallocate@N@?$vector@NV?$allocator@N@std@@@std@@AEAAPEANQEAN$$QEAN@Z$0 000000018002ef1d f   collisioncodegen_CollisionGeometry.obj
 0001:0002df60       ?catch$0@?0???$_Resize_reallocate@U_Value_init_tag@std@@@?$vector@V?$vector@_KV?$allocator@_K@std@@@std@@V?$allocator@V?$vector@_KV?$allocator@_K@std@@@std@@@2@@std@@AEAAX_KAEBU_Value_init_tag@1@@Z@4HA 000000018002ef60 f   collisioncodegen_CollisionGeometry.obj
 0001:0002df6d       __catch$??$_Resize_reallocate@U_Value_init_tag@std@@@?$vector@V?$vector@_KV?$allocator@_K@std@@@std@@V?$allocator@V?$vector@_KV?$allocator@_K@std@@@std@@@2@@std@@AEAAX_KAEBU_Value_init_tag@1@@Z$0 000000018002ef6d f   collisioncodegen_CollisionGeometry.obj
 0001:0002dfb0       ?catch$0@?0???$_Resize_reallocate@U_Value_init_tag@std@@@?$vector@_KV?$allocator@_K@std@@@std@@AEAAX_KAEBU_Value_init_tag@1@@Z@4HA 000000018002efb0 f   collisioncodegen_CollisionGeometry.obj
 0001:0002dfbd       __catch$??$_Resize_reallocate@U_Value_init_tag@std@@@?$vector@_KV?$allocator@_K@std@@@std@@AEAAX_KAEBU_Value_init_tag@1@@Z$0 000000018002efbd f   collisioncodegen_CollisionGeometry.obj
 0001:0002e000       ?dtor$0@?0???$_Uninitialized_move@PEANV?$allocator@N@std@@@std@@YAPEANQEAN0PEANAEAV?$allocator@N@0@@Z@4HA 000000018002f000 f   collisioncodegen_CollisionGeometry.obj
 0001:0002e020       ?dtor$0@?0???$_Uninitialized_move@PEAV?$vector@_KV?$allocator@_K@std@@@std@@V?$allocator@V?$vector@_KV?$allocator@_K@std@@@std@@@2@@std@@YAPEAV?$vector@_KV?$allocator@_K@std@@@0@QEAV10@0PEAV10@AEAV?$allocator@V?$vector@_KV?$allocator@_K@std@@@std@@@0@@Z@4HA 000000018002f020 f   collisioncodegen_CollisionGeometry.obj
 0001:0002e040       ?dtor$0@?0???$_Uninitialized_move@PEA_KV?$allocator@_K@std@@@std@@YAPEA_KQEA_K0PEA_KAEAV?$allocator@_K@0@@Z@4HA 000000018002f040 f   collisioncodegen_CollisionGeometry.obj
 0001:0002e060       ?dtor$0@?0???$_Uninitialized_value_construct_n@V?$allocator@V?$vector@_KV?$allocator@_K@std@@@std@@@std@@@std@@YAPEAV?$vector@_KV?$allocator@_K@std@@@0@PEAV10@_KAEAV?$allocator@V?$vector@_KV?$allocator@_K@std@@@std@@@0@@Z@4HA 000000018002f060 f   collisioncodegen_CollisionGeometry.obj
 0001:0002e080       ?dtor$0@?0???$_Uninitialized_value_construct_n@V?$allocator@_K@std@@@std@@YAPEA_KPEA_K_KAEAV?$allocator@_K@0@@Z@4HA 000000018002f080 f   collisioncodegen_CollisionGeometry.obj
 0001:0002e0a0       ?dtor$0@?0???0sentry@?$basic_ostream@DU?$char_traits@D@std@@@std@@QEAA@AEAV12@@Z@4HA 000000018002f0a0 f   collisioncodegen_CollisionGeometry.obj
 0001:0002e0c0       collisioncodegen_makeBox$dtor$0 000000018002f0c0 f   collisioncodegen_api.obj
 0001:0002e0dd       collisioncodegen_makeSphere$dtor$0 000000018002f0dd f   collisioncodegen_api.obj
 0001:0002e0fa       collisioncodegen_makeCylinder$dtor$0 000000018002f0fa f   collisioncodegen_api.obj
 0001:0002e117       collisioncodegen_makeCapsule$dtor$0 000000018002f117 f   collisioncodegen_api.obj
 0001:0002e134       collisioncodegen_makeMesh$dtor$0 000000018002f134 f   collisioncodegen_api.obj
 0001:0002e151       collisioncodegen_copyGeometry$dtor$0 000000018002f151 f   collisioncodegen_api.obj
 0001:0002e16e       collisioncodegen_getType$dtor$0 000000018002f16e f   collisioncodegen_api.obj
 0001:0002e190       ?dtor$0@?0???$_Construct_n@AEBQEAU_ccd_vec3_t@@AEBQEAU1@@?$vector@U_ccd_vec3_t@@V?$allocator@U_ccd_vec3_t@@@std@@@std@@AEAAX_KAEBQEAU_ccd_vec3_t@@1@Z@4HA 000000018002f190 f   collisioncodegen_api.obj
 0001:0002e1b0       ?dtor$0@?0???$_Construct_n@AEBQEAU_idx_vec3_t@shared_robotics@@AEBQEAU12@@?$vector@U_idx_vec3_t@shared_robotics@@V?$allocator@U_idx_vec3_t@shared_robotics@@@std@@@std@@AEAAX_KAEBQEAU_idx_vec3_t@shared_robotics@@1@Z@4HA 000000018002f1b0 f   collisioncodegen_api.obj
 0001:0002e1d0       ?dtor$0@?0???$_Construct_n@AEBQEAV?$vector@_KV?$allocator@_K@std@@@std@@AEBQEAV12@@?$vector@V?$vector@_KV?$allocator@_K@std@@@std@@V?$allocator@V?$vector@_KV?$allocator@_K@std@@@std@@@2@@std@@AEAAX_KAEBQEAV?$vector@_KV?$allocator@_K@std@@@1@1@Z@4HA 000000018002f1d0 f   collisioncodegen_api.obj
 0001:0002e1f0       ?dtor$0@?0???$_Construct_n@AEBQEA_KAEBQEA_K@?$vector@_KV?$allocator@_K@std@@@std@@AEAAX_KAEBQEA_K1@Z@4HA 000000018002f1f0 f   collisioncodegen_api.obj
 0001:0002e210       ?catch$0@?0???$_Emplace_reallocate@AEBU_ccd_vec3_t@@@?$vector@U_ccd_vec3_t@@V?$allocator@U_ccd_vec3_t@@@std@@@std@@AEAAPEAU_ccd_vec3_t@@QEAU2@AEBU2@@Z@4HA 000000018002f210 f   collisioncodegen_api.obj
 0001:0002e21d       __catch$??$_Emplace_reallocate@AEBU_ccd_vec3_t@@@?$vector@U_ccd_vec3_t@@V?$allocator@U_ccd_vec3_t@@@std@@@std@@AEAAPEAU_ccd_vec3_t@@QEAU2@AEBU2@@Z$0 000000018002f21d f   collisioncodegen_api.obj
 0001:0002e260       ?dtor$0@?0???$_Uninitialized_copy@PEAU_ccd_vec3_t@@PEAU1@V?$allocator@U_ccd_vec3_t@@@std@@@std@@YAPEAU_ccd_vec3_t@@PEAU1@00AEAV?$allocator@U_ccd_vec3_t@@@0@@Z@4HA 000000018002f260 f   collisioncodegen_api.obj
 0001:0002e280       ?dtor$0@?0???$_Uninitialized_copy@PEAU_idx_vec3_t@shared_robotics@@PEAU12@V?$allocator@U_idx_vec3_t@shared_robotics@@@std@@@std@@YAPEAU_idx_vec3_t@shared_robotics@@PEAU12@00AEAV?$allocator@U_idx_vec3_t@shared_robotics@@@0@@Z@4HA 000000018002f280 f   collisioncodegen_api.obj
 0001:0002e2a0       ?dtor$0@?0???$_Uninitialized_copy@PEAV?$vector@_KV?$allocator@_K@std@@@std@@PEAV12@V?$allocator@V?$vector@_KV?$allocator@_K@std@@@std@@@2@@std@@YAPEAV?$vector@_KV?$allocator@_K@std@@@0@PEAV10@00AEAV?$allocator@V?$vector@_KV?$allocator@_K@std@@@std@@@0@@Z@4HA 000000018002f2a0 f   collisioncodegen_api.obj
 0001:0002e2c0       ?dtor$0@?0???$_Uninitialized_copy@PEA_KPEA_KV?$allocator@_K@std@@@std@@YAPEA_KPEA_K00AEAV?$allocator@_K@0@@Z@4HA 000000018002f2c0 f   collisioncodegen_api.obj
 0001:0002e2e0       ?dtor$0@?0???$_Uninitialized_move@PEAU_ccd_vec3_t@@V?$allocator@U_ccd_vec3_t@@@std@@@std@@YAPEAU_ccd_vec3_t@@QEAU1@0PEAU1@AEAV?$allocator@U_ccd_vec3_t@@@0@@Z@4HA 000000018002f2e0 f   collisioncodegen_api.obj
 0001:0002e300       ?dtor$0@?0???0?$basic_string@DU?$char_traits@D@std@@V?$allocator@D@2@@std@@QEAA@QEBD@Z@4HA 000000018002f300 f   collisioncodegen_api.obj
 0001:0002e320       ?dtor$0@?0???0CollisionGeometry@shared_robotics@@QEAA@AEBV01@@Z@4HA 000000018002f320 f   collisioncodegen_api.obj
 0001:0002e340       ?dtor$1@?0???0CollisionGeometry@shared_robotics@@QEAA@AEBV01@@Z@4HA 000000018002f340 f   collisioncodegen_api.obj
 0001:0002e360       ?dtor$0@?0???0CollisionGeometry@shared_robotics@@QEAA@N@Z@4HA 000000018002f360 f   collisioncodegen_api.obj
 0001:0002e380       ?dtor$1@?0???0CollisionGeometry@shared_robotics@@QEAA@N@Z@4HA 000000018002f380 f   collisioncodegen_api.obj
 0001:0002e3a0       ?dtor$2@?0???0CollisionGeometry@shared_robotics@@QEAA@N@Z@4HA 000000018002f3a0 f   collisioncodegen_api.obj
 0001:0002e3c0       ?dtor$0@?0???0CollisionGeometry@shared_robotics@@QEAA@NN@Z@4HA 000000018002f3c0 f   collisioncodegen_api.obj
 0001:0002e3e0       ?dtor$1@?0???0CollisionGeometry@shared_robotics@@QEAA@NN@Z@4HA 000000018002f3e0 f   collisioncodegen_api.obj
 0001:0002e400       ?dtor$2@?0???0CollisionGeometry@shared_robotics@@QEAA@NN@Z@4HA 000000018002f400 f   collisioncodegen_api.obj
 0001:0002e420       ?dtor$0@?0???0CollisionGeometry@shared_robotics@@QEAA@NNN@Z@4HA 000000018002f420 f   collisioncodegen_api.obj
 0001:0002e440       ?dtor$1@?0???0CollisionGeometry@shared_robotics@@QEAA@NNN@Z@4HA 000000018002f440 f   collisioncodegen_api.obj
 0001:0002e460       ?dtor$2@?0???0CollisionGeometry@shared_robotics@@QEAA@NNN@Z@4HA 000000018002f460 f   collisioncodegen_api.obj
 0001:0002e480       ?dtor$0@?0???0CollisionGeometry@shared_robotics@@QEAA@PEANH_N@Z@4HA 000000018002f480 f   collisioncodegen_api.obj
 0001:0002e4a0       ?dtor$1@?0???0CollisionGeometry@shared_robotics@@QEAA@PEANH_N@Z@4HA 000000018002f4a0 f   collisioncodegen_api.obj
 0001:0002e4c0       ?dtor$2@?0???0CollisionGeometry@shared_robotics@@QEAA@PEANH_N@Z@4HA 000000018002f4c0 f   collisioncodegen_api.obj
 0001:0002e4dc       ?fin$0@?0??dllmain_crt_process_attach@@YAHQEAUHINSTANCE__@@QEAX@Z@4HA 000000018002f4dc f   MSVCRT:dll_dllmain.obj
 0001:0002e4f3       ?fin$0@?0??dllmain_crt_process_detach@@YAH_N@Z@4HA 000000018002f4f3 f   MSVCRT:dll_dllmain.obj
 0001:0002e50c       ?fin$1@?0??dllmain_crt_process_detach@@YAH_N@Z@4HA 000000018002f50c f   MSVCRT:dll_dllmain.obj
 0001:0002e520       ?filt$0@?0??dllmain_dispatch@@YAHQEAUHINSTANCE__@@KQEAX@Z@4HA 000000018002f520 f   MSVCRT:dll_dllmain.obj
 0001:0002e556       __scrt_is_nonwritable_in_current_image$filt$0 000000018002f556 f   MSVCRT:utility.obj
 0002:00000510       ?iv@?1??SystemCore_setup@@9@9 0000000180030510     m_nM5NMYJUCkhQa81HtyaWRC.obj
 0002:00000518       ?iv1@?1??SystemCore_setup@@9@9 0000000180030518     m_nM5NMYJUCkhQa81HtyaWRC.obj
 0002:00000520       ?iv2@?1??SystemCore_setup@@9@9 0000000180030520     m_nM5NMYJUCkhQa81HtyaWRC.obj
 0002:00000528       ?iv@?1??mw__internal__call__reset@@9@9 0000000180030528     m_nM5NMYJUCkhQa81HtyaWRC.obj
 0002:00000530       ?iv1@?1??mw__internal__call__reset@@9@9 0000000180030530     m_nM5NMYJUCkhQa81HtyaWRC.obj
 0002:00000538       ?iv2@?1??mw__internal__call__reset@@9@9 0000000180030538     m_nM5NMYJUCkhQa81HtyaWRC.obj
 0002:00000540       ?iv@?1??mw__internal__call__step@@9@9 0000000180030540     m_nM5NMYJUCkhQa81HtyaWRC.obj
 0002:00000548       ?iv1@?1??mw__internal__call__step@@9@9 0000000180030548     m_nM5NMYJUCkhQa81HtyaWRC.obj
 0002:00000550       ?iv2@?1??mw__internal__call__step@@9@9 0000000180030550     m_nM5NMYJUCkhQa81HtyaWRC.obj
 0002:00000558       ?iv3@?1??mw__internal__call__step@@9@9 0000000180030558     m_nM5NMYJUCkhQa81HtyaWRC.obj
 0002:00000560       ?iv4@?1??mw__internal__call__step@@9@9 0000000180030560     m_nM5NMYJUCkhQa81HtyaWRC.obj
 0002:00000568       ?iv6@?1??mw__internal__call__step@@9@9 0000000180030568     m_nM5NMYJUCkhQa81HtyaWRC.obj
 0002:00000570       ?iv1@?1??RigidBodyTree_forwardKinematics@@9@9 0000000180030570     m_nM5NMYJUCkhQa81HtyaWRC.obj
 0002:00000578       ?iv10@?1??RigidBodyTree_forwardKinematics@@9@9 0000000180030578     m_nM5NMYJUCkhQa81HtyaWRC.obj
 0002:00000580       ?iv11@?1??RigidBodyTree_forwardKinematics@@9@9 0000000180030580     m_nM5NMYJUCkhQa81HtyaWRC.obj
 0002:00000588       ?iv2@?1??RigidBodyTree_forwardKinematics@@9@9 0000000180030588     m_nM5NMYJUCkhQa81HtyaWRC.obj
 0002:00000590       ?iv3@?1??RigidBodyTree_forwardKinematics@@9@9 0000000180030590     m_nM5NMYJUCkhQa81HtyaWRC.obj
 0002:00000598       ?iv4@?1??RigidBodyTree_forwardKinematics@@9@9 0000000180030598     m_nM5NMYJUCkhQa81HtyaWRC.obj
 0002:000005a0       ?iv5@?1??RigidBodyTree_forwardKinematics@@9@9 00000001800305a0     m_nM5NMYJUCkhQa81HtyaWRC.obj
 0002:000005a8       ?iv6@?1??RigidBodyTree_forwardKinematics@@9@9 00000001800305a8     m_nM5NMYJUCkhQa81HtyaWRC.obj
 0002:000005b0       ?iv7@?1??RigidBodyTree_forwardKinematics@@9@9 00000001800305b0     m_nM5NMYJUCkhQa81HtyaWRC.obj
 0002:000005b8       ?iv8@?1??RigidBodyTree_forwardKinematics@@9@9 00000001800305b8     m_nM5NMYJUCkhQa81HtyaWRC.obj
 0002:000005c0       ?iv@?1??axang2tform@@9@9   00000001800305c0     m_nM5NMYJUCkhQa81HtyaWRC.obj
 0002:000005c8       ?iv1@?1??axang2tform@@9@9  00000001800305c8     m_nM5NMYJUCkhQa81HtyaWRC.obj
 0002:000005d0       ?iv2@?1??axang2tform@@9@9  00000001800305d0     m_nM5NMYJUCkhQa81HtyaWRC.obj
 0002:000005d8       ?iv3@?1??axang2tform@@9@9  00000001800305d8     m_nM5NMYJUCkhQa81HtyaWRC.obj
 0002:000005e0       ?iv4@?1??axang2tform@@9@9  00000001800305e0     m_nM5NMYJUCkhQa81HtyaWRC.obj
 0002:000005e8       ?iv5@?1??axang2tform@@9@9  00000001800305e8     m_nM5NMYJUCkhQa81HtyaWRC.obj
 0002:000005f0       ?iv@?1??RigidBody_get_Joint@@9@9 00000001800305f0     m_nM5NMYJUCkhQa81HtyaWRC.obj
 0002:000005f8       ?iv1@?1??RigidBody_get_Joint@@9@9 00000001800305f8     m_nM5NMYJUCkhQa81HtyaWRC.obj
 0002:00000600       ?iv2@?1??RigidBody_get_Joint@@9@9 0000000180030600     m_nM5NMYJUCkhQa81HtyaWRC.obj
 0002:00000608       ?iv@?1??RigidBodyTree_validateConfiguration@@9@9 0000000180030608     m_nM5NMYJUCkhQa81HtyaWRC.obj
 0002:00000610       ?iv1@?1??RigidBodyTree_validateConfiguration@@9@9 0000000180030610     m_nM5NMYJUCkhQa81HtyaWRC.obj
 0002:00000618       ?iv10@?1??RigidBodyTree_validateConfiguration@@9@9 0000000180030618     m_nM5NMYJUCkhQa81HtyaWRC.obj
 0002:00000620       ?iv2@?1??RigidBodyTree_validateConfiguration@@9@9 0000000180030620     m_nM5NMYJUCkhQa81HtyaWRC.obj
 0002:00000628       ?iv3@?1??RigidBodyTree_validateConfiguration@@9@9 0000000180030628     m_nM5NMYJUCkhQa81HtyaWRC.obj
 0002:00000630       ?iv4@?1??RigidBodyTree_validateConfiguration@@9@9 0000000180030630     m_nM5NMYJUCkhQa81HtyaWRC.obj
 0002:00000638       ?iv5@?1??RigidBodyTree_validateConfiguration@@9@9 0000000180030638     m_nM5NMYJUCkhQa81HtyaWRC.obj
 0002:00000640       ?iv6@?1??RigidBodyTree_validateConfiguration@@9@9 0000000180030640     m_nM5NMYJUCkhQa81HtyaWRC.obj
 0002:00000648       ?iv7@?1??RigidBodyTree_validateConfiguration@@9@9 0000000180030648     m_nM5NMYJUCkhQa81HtyaWRC.obj
 0002:00000650       ?iv8@?1??RigidBodyTree_validateConfiguration@@9@9 0000000180030650     m_nM5NMYJUCkhQa81HtyaWRC.obj
 0002:00000658       ?iv9@?1??RigidBodyTree_validateConfiguration@@9@9 0000000180030658     m_nM5NMYJUCkhQa81HtyaWRC.obj
 0002:00000790       ?_Fake_alloc@std@@3U_Fake_allocator@1@B 0000000180030790     collisioncodegen_CollisionGeometry.obj
 0002:00000798       $SG39186                   0000000180030798     collisioncodegen_CollisionGeometry.obj
 0002:00000858       ?_Fake_alloc@std@@3U_Fake_allocator@1@B 0000000180030858     collisioncodegen_api.obj
 0002:000008b3       ?_Fake_alloc@std@@3U_Fake_allocator@1@B 00000001800308b3     collisioncodegen_ccdExtensions.obj
 0002:000008b4       ?_Fake_alloc@std@@3U_Fake_allocator@1@B 00000001800308b4     collisioncodegen_checkCollision.obj
 0002:000008c8       GS_ExceptionPointers       00000001800308c8     MSVCRT:gs_report.obj
 0002:00001390       $unwind$cgxe_SCARA_Control_System_method_dispatcher 0000000180031390     SCARA_Control_System_cgxe.obj
 0002:00001398       $unwind$method_dispatcher_nM5NMYJUCkhQa81HtyaWRC 0000000180031398     m_nM5NMYJUCkhQa81HtyaWRC.obj
 0002:000013a0       $unwind$cgxe_mdl_start     00000001800313a0     m_nM5NMYJUCkhQa81HtyaWRC.obj
 0002:000013a8       $unwind$cgxe_mdl_initialize 00000001800313a8     m_nM5NMYJUCkhQa81HtyaWRC.obj
 0002:000013b0       $unwind$cgxe_mdl_outputs   00000001800313b0     m_nM5NMYJUCkhQa81HtyaWRC.obj
 0002:000013b8       $unwind$cgxe_mdl_terminate 00000001800313b8     m_nM5NMYJUCkhQa81HtyaWRC.obj
 0002:000013c0       $unwind$mw__internal__system__init__fcn 00000001800313c0     m_nM5NMYJUCkhQa81HtyaWRC.obj
 0002:000013c8       $unwind$mw__internal__system__terminate__fcn 00000001800313c8     m_nM5NMYJUCkhQa81HtyaWRC.obj
 0002:000013d0       $unwind$mw__internal__call__setup 00000001800313d0     m_nM5NMYJUCkhQa81HtyaWRC.obj
 0002:000013d8       $unwind$SystemCore_setup   00000001800313d8     m_nM5NMYJUCkhQa81HtyaWRC.obj
 0002:000013e8       $unwind$GetJacobianBlock_setupImpl 00000001800313e8     m_nM5NMYJUCkhQa81HtyaWRC.obj
 0002:000013f0       $unwind$RigidBodyTree_defaultInitializeBodiesCellArray 00000001800313f0     m_nM5NMYJUCkhQa81HtyaWRC.obj
 0002:00001400       $unwind$b_strcmp           0000000180031400     m_nM5NMYJUCkhQa81HtyaWRC.obj
 0002:00001408       $unwind$c_strcmp           0000000180031408     m_nM5NMYJUCkhQa81HtyaWRC.obj
 0002:00001410       $unwind$CollisionSet_CollisionSet 0000000180031410     m_nM5NMYJUCkhQa81HtyaWRC.obj
 0002:00001418       $unwind$RigidBody_RigidBody 0000000180031418     m_nM5NMYJUCkhQa81HtyaWRC.obj
 0002:00001428       $unwind$b_RigidBody_RigidBody 0000000180031428     m_nM5NMYJUCkhQa81HtyaWRC.obj
 0002:00001438       $unwind$c_RigidBody_RigidBody 0000000180031438     m_nM5NMYJUCkhQa81HtyaWRC.obj
 0002:00001448       $unwind$d_RigidBody_RigidBody 0000000180031448     m_nM5NMYJUCkhQa81HtyaWRC.obj
 0002:00001458       $unwind$e_RigidBody_RigidBody 0000000180031458     m_nM5NMYJUCkhQa81HtyaWRC.obj
 0002:00001468       $unwind$f_RigidBody_RigidBody 0000000180031468     m_nM5NMYJUCkhQa81HtyaWRC.obj
 0002:00001478       $unwind$mw__internal__call__reset 0000000180031478     m_nM5NMYJUCkhQa81HtyaWRC.obj
 0002:00001488       $unwind$mw__internal__call__step 0000000180031488     m_nM5NMYJUCkhQa81HtyaWRC.obj
 0002:00001498       $unwind$RigidBodyTree_forwardKinematics 0000000180031498     m_nM5NMYJUCkhQa81HtyaWRC.obj
 0002:000014a8       $unwind$d_strcmp           00000001800314a8     m_nM5NMYJUCkhQa81HtyaWRC.obj
 0002:000014b0       $unwind$axang2tform        00000001800314b0     m_nM5NMYJUCkhQa81HtyaWRC.obj
 0002:000014c0       $unwind$sumColumnB         00000001800314c0     m_nM5NMYJUCkhQa81HtyaWRC.obj
 0002:000014c8       $unwind$e_strcmp           00000001800314c8     m_nM5NMYJUCkhQa81HtyaWRC.obj
 0002:000014d0       $unwind$RigidBody_get_Joint 00000001800314d0     m_nM5NMYJUCkhQa81HtyaWRC.obj
 0002:000014e0       $unwind$mtimes             00000001800314e0     m_nM5NMYJUCkhQa81HtyaWRC.obj
 0002:000014e8       $unwind$handle_matlabCodegenDestructor 00000001800314e8     m_nM5NMYJUCkhQa81HtyaWRC.obj
 0002:000014f0       $unwind$message            00000001800314f0     m_nM5NMYJUCkhQa81HtyaWRC.obj
 0002:000014f8       $unwind$getString          00000001800314f8     m_nM5NMYJUCkhQa81HtyaWRC.obj
 0002:00001500       $unwind$error              0000000180031500     m_nM5NMYJUCkhQa81HtyaWRC.obj
 0002:00001508       $unwind$b_message          0000000180031508     m_nM5NMYJUCkhQa81HtyaWRC.obj
 0002:00001510       $unwind$c_message          0000000180031510     m_nM5NMYJUCkhQa81HtyaWRC.obj
 0002:00001520       $unwind$RigidBodyTree_validateConfiguration 0000000180031520     m_nM5NMYJUCkhQa81HtyaWRC.obj
 0002:00001530       $unwind$emxInitStruct_robotics_slmanip_ 0000000180031530     m_nM5NMYJUCkhQa81HtyaWRC.obj
 0002:00001538       $unwind$emxInitStruct_robotics_manip_in 0000000180031538     m_nM5NMYJUCkhQa81HtyaWRC.obj
 0002:00001540       $unwind$b_emxInitStruct_robotics_manip_in 0000000180031540     m_nM5NMYJUCkhQa81HtyaWRC.obj
 0002:00001548       $unwind$emxInit_char_T     0000000180031548     m_nM5NMYJUCkhQa81HtyaWRC.obj
 0002:00001550       $unwind$emxInitStruct_rigidBodyJoint 0000000180031550     m_nM5NMYJUCkhQa81HtyaWRC.obj
 0002:00001558       $unwind$emxInit_real_T     0000000180031558     m_nM5NMYJUCkhQa81HtyaWRC.obj
 0002:00001560       $unwind$c_emxInitStruct_robotics_manip_in 0000000180031560     m_nM5NMYJUCkhQa81HtyaWRC.obj
 0002:00001568       $unwind$emxInit_robotics_manip_internal 0000000180031568     m_nM5NMYJUCkhQa81HtyaWRC.obj
 0002:00001570       $unwind$emxInitMatrix_robotics_manip_in 0000000180031570     m_nM5NMYJUCkhQa81HtyaWRC.obj
 0002:00001578       $unwind$emxFree_char_T     0000000180031578     m_nM5NMYJUCkhQa81HtyaWRC.obj
 0002:00001580       $unwind$emxFreeStruct_robotics_manip_in 0000000180031580     m_nM5NMYJUCkhQa81HtyaWRC.obj
 0002:00001588       $unwind$emxFreeStruct_rigidBodyJoint 0000000180031588     m_nM5NMYJUCkhQa81HtyaWRC.obj
 0002:00001590       $unwind$emxFree_real_T     0000000180031590     m_nM5NMYJUCkhQa81HtyaWRC.obj
 0002:00001598       $unwind$emxFree_robotics_manip_internal 0000000180031598     m_nM5NMYJUCkhQa81HtyaWRC.obj
 0002:000015a0       $unwind$b_emxFreeStruct_robotics_manip_in 00000001800315a0     m_nM5NMYJUCkhQa81HtyaWRC.obj
 0002:000015a8       $unwind$c_emxFreeStruct_robotics_manip_in 00000001800315a8     m_nM5NMYJUCkhQa81HtyaWRC.obj
 0002:000015b0       $unwind$emxFreeMatrix_robotics_manip_in 00000001800315b0     m_nM5NMYJUCkhQa81HtyaWRC.obj
 0002:000015b8       $unwind$emxFreeStruct_robotics_slmanip_ 00000001800315b8     m_nM5NMYJUCkhQa81HtyaWRC.obj
 0002:000015c0       $unwind$emxEnsureCapacity_char_T 00000001800315c0     m_nM5NMYJUCkhQa81HtyaWRC.obj
 0002:000015c8       $unwind$emxEnsureCapacity_real_T 00000001800315c8     m_nM5NMYJUCkhQa81HtyaWRC.obj
 0002:000015d0       $unwind$emxEnsureCapacity_robotics_mani 00000001800315d0     m_nM5NMYJUCkhQa81HtyaWRC.obj
 0002:000015d8       $unwind$emxInit_cell_wrap  00000001800315d8     m_nM5NMYJUCkhQa81HtyaWRC.obj
 0002:000015e0       $unwind$emxFree_cell_wrap  00000001800315e0     m_nM5NMYJUCkhQa81HtyaWRC.obj
 0002:000015e8       $unwind$emxEnsureCapacity_cell_wrap 00000001800315e8     m_nM5NMYJUCkhQa81HtyaWRC.obj
 0002:000015f0       $unwind$init_simulink_io_address 00000001800315f0     m_nM5NMYJUCkhQa81HtyaWRC.obj
 0002:000015f8       $unwind$mdlOutputs_nM5NMYJUCkhQa81HtyaWRC 00000001800315f8     m_nM5NMYJUCkhQa81HtyaWRC.obj
 0002:00001600       $unwind$mdlInitialize_nM5NMYJUCkhQa81HtyaWRC 0000000180031600     m_nM5NMYJUCkhQa81HtyaWRC.obj
 0002:00001608       $unwind$mdlUpdate_nM5NMYJUCkhQa81HtyaWRC 0000000180031608     m_nM5NMYJUCkhQa81HtyaWRC.obj
 0002:00001610       $unwind$mdlTerminate_nM5NMYJUCkhQa81HtyaWRC 0000000180031610     m_nM5NMYJUCkhQa81HtyaWRC.obj
 0002:00001618       $unwind$mdlEnable_nM5NMYJUCkhQa81HtyaWRC 0000000180031618     m_nM5NMYJUCkhQa81HtyaWRC.obj
 0002:00001620       $unwind$mdlDisable_nM5NMYJUCkhQa81HtyaWRC 0000000180031620     m_nM5NMYJUCkhQa81HtyaWRC.obj
 0002:00001628       $unwind$mdlStart_nM5NMYJUCkhQa81HtyaWRC 0000000180031628     m_nM5NMYJUCkhQa81HtyaWRC.obj
 0002:00001630       $unwind$cgxe_nM5NMYJUCkhQa81HtyaWRC_BuildInfoUpdate 0000000180031630     m_nM5NMYJUCkhQa81HtyaWRC.obj
 0002:00001638       $unwind$cgxe_nM5NMYJUCkhQa81HtyaWRC_fallback_info 0000000180031638     m_nM5NMYJUCkhQa81HtyaWRC.obj
 0002:00001640       $unwind$_vsnprintf_l       0000000180031640     SCARA_Control_System_cgxe_registry.obj
 0002:00001648       $unwind$_vsprintf_l        0000000180031648     SCARA_Control_System_cgxe_registry.obj
 0002:00001650       $unwind$sprintf            0000000180031650     SCARA_Control_System_cgxe_registry.obj
 0002:00001658       $unwind$mexFunction        0000000180031658     SCARA_Control_System_cgxe_registry.obj
 0002:00001668       $unwind$_ssSetInputPortDirectFeedThroughFcn 0000000180031668     SCARA_Control_System_cgxe_registry.obj
 0002:00001678       $unwind$_ssSetRWorkValueFcn 0000000180031678     SCARA_Control_System_cgxe_registry.obj
 0002:00001680       $unwind$_ssGetRWorkValueFcn 0000000180031680     SCARA_Control_System_cgxe_registry.obj
 0002:00001688       $unwind$_ssSetIWorkValueFcn 0000000180031688     SCARA_Control_System_cgxe_registry.obj
 0002:00001690       $unwind$_ssGetIWorkValueFcn 0000000180031690     SCARA_Control_System_cgxe_registry.obj
 0002:00001698       $unwind$_ssSetPWorkValueFcn 0000000180031698     SCARA_Control_System_cgxe_registry.obj
 0002:000016a0       $unwind$_ssGetPWorkValueFcn 00000001800316a0     SCARA_Control_System_cgxe_registry.obj
 0002:000016a8       $unwind$_ssGetInputPortSignalFcn 00000001800316a8     SCARA_Control_System_cgxe_registry.obj
 0002:000016b8       $unwind$_ssGetInputPortBufferDstPortFcn 00000001800316b8     SCARA_Control_System_cgxe_registry.obj
 0002:000016c0       $unwind$_ssGetInputPortSignalPtrsFcn 00000001800316c0     SCARA_Control_System_cgxe_registry.obj
 0002:000016d0       $unwind$ssGetParameterTuningCompliance 00000001800316d0     SCARA_Control_System_cgxe_registry.obj
 0002:000016d8       $unwind$_ssReadInputStringFcn 00000001800316d8     SCARA_Control_System_cgxe_registry.obj
 0002:000016e0       $unwind$ssGetDTypeIdFromMxArray 00000001800316e0     SCARA_Control_System_cgxe_registry.obj
 0002:000016e8       $unwind$ssWriteRTWMx2dMatParam 00000001800316e8     SCARA_Control_System_cgxe_registry.obj
 0002:000016f0       $unwind$ssWriteRTWMxVectParam 00000001800316f0     SCARA_Control_System_cgxe_registry.obj
 0002:000016f8       $unwind$ssWriteRTWParameters 00000001800316f8     SCARA_Control_System_cgxe_registry.obj
 0002:00001700       $unwind$ssWriteRTWParamSettings 0000000180031700     SCARA_Control_System_cgxe_registry.obj
 0002:00001708       $unwind$ssWriteRTWStr      0000000180031708     SCARA_Control_System_cgxe_registry.obj
 0002:00001710       $unwind$ssWriteRTWWorkVect 0000000180031710     SCARA_Control_System_cgxe_registry.obj
 0002:00001724       $unwind$ssWarning          0000000180031724     SCARA_Control_System_cgxe_registry.obj
 0002:00001738       $unwind$ssGetRootSS        0000000180031738     SCARA_Control_System_cgxe_registry.obj
 0002:00001740       $unwind$ssGetParentSS      0000000180031740     SCARA_Control_System_cgxe_registry.obj
 0002:00001748       $unwind$ssWriteRTWNameValuePair 0000000180031748     SCARA_Control_System_cgxe_registry.obj
 0002:00001750       $unwind$_ssSetInputPortMatrixDimensions 0000000180031750     SCARA_Control_System_cgxe_registry.obj
 0002:0000175c       $unwind$_ssSetOutputPortMatrixDimensions 000000018003175c     SCARA_Control_System_cgxe_registry.obj
 0002:00001768       $unwind$_ssSetInputPortVectorDimension 0000000180031768     SCARA_Control_System_cgxe_registry.obj
 0002:00001774       $unwind$_ssSetOutputPortVectorDimension 0000000180031774     SCARA_Control_System_cgxe_registry.obj
 0002:00001780       $unwind$ssIsRunTimeParamTunable 0000000180031780     SCARA_Control_System_cgxe_registry.obj
 0002:00001788       $unwind$ssGetSFuncBlockHandle 0000000180031788     SCARA_Control_System_cgxe_registry.obj
 0002:00001790       $unwind$_ssGetCallSystemNumFcnCallDestinations 0000000180031790     SCARA_Control_System_cgxe_registry.obj
 0002:00001798       $unwind$_ssGetCurrentInputPortWidth 0000000180031798     SCARA_Control_System_cgxe_registry.obj
 0002:000017a0       $unwind$_ssGetCurrentOutputPortWidth 00000001800317a0     SCARA_Control_System_cgxe_registry.obj
 0002:000017a8       $unwind$ssGetIsZeroCrossControlDisabled 00000001800317a8     SCARA_Control_System_cgxe_registry.obj
 0002:000017b0       $unwind$ssSetIsInputPortUsedForContZcSignal 00000001800317b0     SCARA_Control_System_cgxe_registry.obj
 0002:000017b8       $unwind$ssSetZcSignalIsZcElementDisc 00000001800317b8     SCARA_Control_System_cgxe_registry.obj
 0002:000017c8       $unwind$ssSetZcSignalName  00000001800317c8     SCARA_Control_System_cgxe_registry.obj
 0002:000017d0       $unwind$ssSetZcSignalWidth 00000001800317d0     SCARA_Control_System_cgxe_registry.obj
 0002:000017d8       $unwind$ssSetZcSignalZcEventType 00000001800317d8     SCARA_Control_System_cgxe_registry.obj
 0002:000017e0       $unwind$ssSetZcSignalType  00000001800317e0     SCARA_Control_System_cgxe_registry.obj
 0002:000017e8       $unwind$ssSetZcSignalZcTol 00000001800317e8     SCARA_Control_System_cgxe_registry.obj
 0002:000017f0       $unwind$ssSetZcSignalNeedsEventNotification 00000001800317f0     SCARA_Control_System_cgxe_registry.obj
 0002:000017f8       $unwind$ssCreateAndAddZcSignalInfo 00000001800317f8     SCARA_Control_System_cgxe_registry.obj
 0002:00001800       $unwind$ssCloneAndAddZcSignalInfo 0000000180031800     SCARA_Control_System_cgxe_registry.obj
 0002:00001808       $unwind$ssGetNumZcSignals  0000000180031808     SCARA_Control_System_cgxe_registry.obj
 0002:00001810       $unwind$ssGetZcSignalVector 0000000180031810     SCARA_Control_System_cgxe_registry.obj
 0002:00001818       $unwind$ssGetZcSignalName  0000000180031818     SCARA_Control_System_cgxe_registry.obj
 0002:00001820       $unwind$ssGetZcSignalWidth 0000000180031820     SCARA_Control_System_cgxe_registry.obj
 0002:00001828       $unwind$ssGetZcSignalZcEventType 0000000180031828     SCARA_Control_System_cgxe_registry.obj
 0002:00001830       $unwind$ssGetZcSignalZcEvents 0000000180031830     SCARA_Control_System_cgxe_registry.obj
 0002:00001838       $unwind$ssGetZcSignalType  0000000180031838     SCARA_Control_System_cgxe_registry.obj
 0002:00001840       $unwind$ssGetZcSignalZcTol 0000000180031840     SCARA_Control_System_cgxe_registry.obj
 0002:00001848       $unwind$ssGetZcSignalNeedsEventNotification 0000000180031848     SCARA_Control_System_cgxe_registry.obj
 0002:00001850       $unwind$ssGetZcSignalIsZcElementDisc 0000000180031850     SCARA_Control_System_cgxe_registry.obj
 0002:00001860       $unwind$ssGetIsInputPortElementContinuous 0000000180031860     SCARA_Control_System_cgxe_registry.obj
 0002:00001870       $unwind$_ssGetAbsTol       0000000180031870     SCARA_Control_System_cgxe_registry.obj
 0002:00001878       $unwind$_ssSetInputPortReusableFcn 0000000180031878     SCARA_Control_System_cgxe_registry.obj
 0002:00001880       $unwind$_ssSetOutputPortReusableFcn 0000000180031880     SCARA_Control_System_cgxe_registry.obj
 0002:00001888       $unwind$_ssSetSymbolicDimsSupport 0000000180031888     SCARA_Control_System_cgxe_registry.obj
 0002:00001890       $unwind$_ssRegisterSymbolicDimsExpr 0000000180031890     SCARA_Control_System_cgxe_registry.obj
 0002:00001898       $unwind$_ssRegisterSymbolicDimsMATLABExpr 0000000180031898     SCARA_Control_System_cgxe_registry.obj
 0002:000018a0       $unwind$_ssRegisterSymbolicDims 00000001800318a0     SCARA_Control_System_cgxe_registry.obj
 0002:000018a8       $unwind$_ssRegisterSymbolicDimsString 00000001800318a8     SCARA_Control_System_cgxe_registry.obj
 0002:000018b0       $unwind$_ssRegisterSymbolicDimsIntValue 00000001800318b0     SCARA_Control_System_cgxe_registry.obj
 0002:000018b8       $unwind$_ssRegisterSymbolicEqualRelation 00000001800318b8     SCARA_Control_System_cgxe_registry.obj
 0002:000018c0       $unwind$_ssRegisterSymbolicEqualValue 00000001800318c0     SCARA_Control_System_cgxe_registry.obj
 0002:000018c8       $unwind$_ssAmendLeadingSymbolicDims 00000001800318c8     SCARA_Control_System_cgxe_registry.obj
 0002:000018d0       $unwind$_ssAmendTrailingSymbolicDims 00000001800318d0     SCARA_Control_System_cgxe_registry.obj
 0002:000018d8       $unwind$_ssRegisterSymbolicDimsPlus 00000001800318d8     SCARA_Control_System_cgxe_registry.obj
 0002:000018e0       $unwind$_ssRegisterSymbolicDimsMinus 00000001800318e0     SCARA_Control_System_cgxe_registry.obj
 0002:000018e8       $unwind$_ssRegisterSymbolicDimsMultiply 00000001800318e8     SCARA_Control_System_cgxe_registry.obj
 0002:000018f0       $unwind$_ssRegisterSymbolicDimsDivide 00000001800318f0     SCARA_Control_System_cgxe_registry.obj
 0002:000018f8       $unwind$_ssGetNumSymbolicDims 00000001800318f8     SCARA_Control_System_cgxe_registry.obj
 0002:00001900       $unwind$_ssGetSymbolicDim  0000000180031900     SCARA_Control_System_cgxe_registry.obj
 0002:00001908       $unwind$_ssSetInputPortSymbolicDimsId 0000000180031908     SCARA_Control_System_cgxe_registry.obj
 0002:00001910       $unwind$_ssGetCompInputPortSymbolicDimsId 0000000180031910     SCARA_Control_System_cgxe_registry.obj
 0002:00001918       $unwind$_ssSetCompInputPortSymbolicDimsId 0000000180031918     SCARA_Control_System_cgxe_registry.obj
 0002:00001920       $unwind$_ssSetOutputPortSymbolicDimsId 0000000180031920     SCARA_Control_System_cgxe_registry.obj
 0002:00001928       $unwind$_ssGetCompOutputPortSymbolicDimsId 0000000180031928     SCARA_Control_System_cgxe_registry.obj
 0002:00001930       $unwind$_ssSetCompOutputPortSymbolicDimsId 0000000180031930     SCARA_Control_System_cgxe_registry.obj
 0002:00001938       $unwind$_ssGetDWorkSymbolicDimsId 0000000180031938     SCARA_Control_System_cgxe_registry.obj
 0002:00001940       $unwind$_ssSetDWorkSymbolicDimsId 0000000180031940     SCARA_Control_System_cgxe_registry.obj
 0002:00001948       $unwind$_ssGetCompDWorkSymbolicDimsId 0000000180031948     SCARA_Control_System_cgxe_registry.obj
 0002:00001950       $unwind$_ssSetCompDWorkSymbolicDimsId 0000000180031950     SCARA_Control_System_cgxe_registry.obj
 0002:00001958       $unwind$_ssCreateSLCGStringBuffer 0000000180031958     SCARA_Control_System_cgxe_registry.obj
 0002:00001960       $unwind$_ssAddToSLCGStringBuffer 0000000180031960     SCARA_Control_System_cgxe_registry.obj
 0002:00001968       $unwind$_ssGetPointerContainedData 0000000180031968     SCARA_Control_System_cgxe_registry.obj
 0002:00001970       $unwind$_ssGetPointerContainedDataWidth 0000000180031970     SCARA_Control_System_cgxe_registry.obj
 0002:00001978       $unwind$_ssRegisterDynamicArrayDataTypeFcn 0000000180031978     SCARA_Control_System_cgxe_registry.obj
 0002:00001980       $unwind$_ssGetDynamicArrayContainedDataCurrentWidthFcn 0000000180031980     SCARA_Control_System_cgxe_registry.obj
 0002:00001988       $unwind$_ssGetDynamicArrayContainedDataFcn 0000000180031988     SCARA_Control_System_cgxe_registry.obj
 0002:00001990       $unwind$_ssGetInputPortDynamicArrayDataFcn 0000000180031990     SCARA_Control_System_cgxe_registry.obj
 0002:00001998       $unwind$_ssGetOutputPortDynamicArrayDataFcn 0000000180031998     SCARA_Control_System_cgxe_registry.obj
 0002:000019a0       $unwind$_ssGetInputPortDynamicArrayContainedDataFcn 00000001800319a0     SCARA_Control_System_cgxe_registry.obj
 0002:000019a8       $unwind$_ssGetOutputPortDynamicArrayContainedDataFcn 00000001800319a8     SCARA_Control_System_cgxe_registry.obj
 0002:000019b0       $unwind$_ssGetDynamicArrayDWorkContainedDataFcn 00000001800319b0     SCARA_Control_System_cgxe_registry.obj
 0002:000019b8       $unwind$mdlStart           00000001800319b8     SCARA_Control_System_cgxe_registry.obj
 0002:000019c0       $unwind$mdlInitializeConditions 00000001800319c0     SCARA_Control_System_cgxe_registry.obj
 0002:000019c8       $unwind$mdlUpdate          00000001800319c8     SCARA_Control_System_cgxe_registry.obj
 0002:000019d0       $unwind$mdlOutputs         00000001800319d0     SCARA_Control_System_cgxe_registry.obj
 0002:000019d8       $unwind$mdlTerminate       00000001800319d8     SCARA_Control_System_cgxe_registry.obj
 0002:000019e0       $unwind$cgxe_get_supported_modules 00000001800319e0     SCARA_Control_System_cgxe_registry.obj
 0002:000019e8       $unwind$cgxe_process_get_checksums 00000001800319e8     SCARA_Control_System_cgxe_registry.obj
 0002:000019f8       $unwind$cgxe_mex_unlock_call 00000001800319f8     SCARA_Control_System_cgxe_registry.obj
 0002:00001a00       $unwind$cgxe_unpack_simstruct 0000000180031a00     SCARA_Control_System_cgxe_registry.obj
 0002:00001a08       $unwind$cgxe_get_sim_state 0000000180031a08     SCARA_Control_System_cgxe_registry.obj
 0002:00001a10       $unwind$cgxe_set_sim_state 0000000180031a10     SCARA_Control_System_cgxe_registry.obj
 0002:00001a18       $unwind$cgxe_get_BuildInfoUpdate 0000000180031a18     SCARA_Control_System_cgxe_registry.obj
 0002:00001a28       $unwind$cgxe_get_fallback_info 0000000180031a28     SCARA_Control_System_cgxe_registry.obj
 0002:00001a38       $unwind$ProcessMexSfunctionCmdLineCall 0000000180031a38     SCARA_Control_System_cgxe_registry.obj
 0002:00001a48       $unwind$_RegNumInputPortsCB 0000000180031a48     SCARA_Control_System_cgxe_registry.obj
 0002:00001a50       $unwind$_RegNumOutputPortsCB 0000000180031a50     SCARA_Control_System_cgxe_registry.obj
 0002:00001a58       $unwind$_CreateSimStruct   0000000180031a58     SCARA_Control_System_cgxe_registry.obj
 0002:00001a60       $unwind$_ProcessMexSfunctionCmdLineCall 0000000180031a60     SCARA_Control_System_cgxe_registry.obj
 0002:00001a70       $unwind$ReportIndexOutOfBoundsError 0000000180031a70     SCARA_Control_System_cgxe_registry.obj
 0002:00001a80       $unwind$ccdSign            0000000180031a80     ccd_ccd.obj
 0002:00001a88       $unwind$ccdIsZero          0000000180031a88     ccd_ccd.obj
 0002:00001a90       $unwind$ccdEq              0000000180031a90     ccd_ccd.obj
 0002:00001a98       $unwind$ccdVec3Eq          0000000180031a98     ccd_ccd.obj
 0002:00001aa0       $unwind$ccdVec3Len2        0000000180031aa0     ccd_ccd.obj
 0002:00001aa8       $unwind$ccdVec3Copy        0000000180031aa8     ccd_ccd.obj
 0002:00001ab0       $unwind$ccdVec3Normalize   0000000180031ab0     ccd_ccd.obj
 0002:00001ab8       $unwind$ccdVec3Dot         0000000180031ab8     ccd_ccd.obj
 0002:00001ac0       $unwind$ccdSupportCopy     0000000180031ac0     ccd_ccd.obj
 0002:00001ac8       $unwind$ccdSimplexLast     0000000180031ac8     ccd_ccd.obj
 0002:00001ad0       $unwind$ccdSimplexAdd      0000000180031ad0     ccd_ccd.obj
 0002:00001ad8       $unwind$ccdSimplexSet      0000000180031ad8     ccd_ccd.obj
 0002:00001ae0       $unwind$ccdFirstDirDefault 0000000180031ae0     ccd_ccd.obj
 0002:00001ae8       $unwind$__ccdSupport       0000000180031ae8     ccd_ccd.obj
 0002:00001af8       $unwind$ccdGJKIntersect    0000000180031af8     ccd_ccd.obj
 0002:00001b08       $unwind$__ccdGJK           0000000180031b08     ccd_ccd.obj
 0002:00001b18       $unwind$ccdGJKSeparate     0000000180031b18     ccd_ccd.obj
 0002:00001b20       $unwind$ccdGJKPenetration  0000000180031b20     ccd_ccd.obj
 0002:00001b28       $unwind$ccdPtDelEdge       0000000180031b28     ccd_ccd.obj
 0002:00001b30       $unwind$ccdPtDelFace       0000000180031b30     ccd_ccd.obj
 0002:00001b38       $unwind$__ccdGJKEPA        0000000180031b38     ccd_ccd.obj
 0002:00001b48       $unwind$doSimplex          0000000180031b48     ccd_ccd.obj
 0002:00001b50       $unwind$doSimplex2         0000000180031b50     ccd_ccd.obj
 0002:00001b60       $unwind$doSimplex3         0000000180031b60     ccd_ccd.obj
 0002:00001b70       $unwind$doSimplex4         0000000180031b70     ccd_ccd.obj
 0002:00001b80       $unwind$tripleCross        0000000180031b80     ccd_ccd.obj
 0002:00001b90       $unwind$simplexToPolytope4 0000000180031b90     ccd_ccd.obj
 0002:00001ba0       $unwind$simplexToPolytope3 0000000180031ba0     ccd_ccd.obj
 0002:00001bb0       $unwind$simplexToPolytope2 0000000180031bb0     ccd_ccd.obj
 0002:00001bc0       $unwind$expandPolytope     0000000180031bc0     ccd_ccd.obj
 0002:00001bd0       $unwind$nextSupport        0000000180031bd0     ccd_ccd.obj
 0002:00001bd8       $unwind$penEPAPosCmp       0000000180031bd8     ccd_ccd.obj
 0002:00001be0       $unwind$penEPAPos          0000000180031be0     ccd_ccd.obj
 0002:00001be8       $unwind$ccdIsZero          0000000180031be8     ccd_mpr.obj
 0002:00001bf0       $unwind$ccdEq              0000000180031bf0     ccd_mpr.obj
 0002:00001bf8       $unwind$ccdVec3Eq          0000000180031bf8     ccd_mpr.obj
 0002:00001c00       $unwind$ccdVec3Len2        0000000180031c00     ccd_mpr.obj
 0002:00001c08       $unwind$ccdVec3Copy        0000000180031c08     ccd_mpr.obj
 0002:00001c10       $unwind$ccdVec3Normalize   0000000180031c10     ccd_mpr.obj
 0002:00001c18       $unwind$ccdVec3Dot         0000000180031c18     ccd_mpr.obj
 0002:00001c20       $unwind$ccdSupportCopy     0000000180031c20     ccd_mpr.obj
 0002:00001c28       $unwind$ccdSimplexSet      0000000180031c28     ccd_mpr.obj
 0002:00001c30       $unwind$ccdSimplexSwap     0000000180031c30     ccd_mpr.obj
 0002:00001c40       $unwind$ccdMPRIntersect    0000000180031c40     ccd_mpr.obj
 0002:00001c50       $unwind$ccdMPRPenetration  0000000180031c50     ccd_mpr.obj
 0002:00001c60       $unwind$findOrigin         0000000180031c60     ccd_mpr.obj
 0002:00001c68       $unwind$discoverPortal     0000000180031c68     ccd_mpr.obj
 0002:00001c78       $unwind$refinePortal       0000000180031c78     ccd_mpr.obj
 0002:00001c88       $unwind$findPenetr         0000000180031c88     ccd_mpr.obj
 0002:00001c98       $unwind$findPenetrTouch    0000000180031c98     ccd_mpr.obj
 0002:00001ca0       $unwind$findPenetrSegment  0000000180031ca0     ccd_mpr.obj
 0002:00001ca8       $unwind$findPos            0000000180031ca8     ccd_mpr.obj
 0002:00001cb8       $unwind$expandPortal       0000000180031cb8     ccd_mpr.obj
 0002:00001cc8       $unwind$portalDir          0000000180031cc8     ccd_mpr.obj
 0002:00001cd8       $unwind$portalEncapsulesOrigin 0000000180031cd8     ccd_mpr.obj
 0002:00001ce0       $unwind$portalReachTolerance 0000000180031ce0     ccd_mpr.obj
 0002:00001ce8       $unwind$portalCanEncapsuleOrigin 0000000180031ce8     ccd_mpr.obj
 0002:00001cf0       $unwind$_vfprintf_l        0000000180031cf0     ccd_polytope.obj
 0002:00001cf8       $unwind$fprintf            0000000180031cf8     ccd_polytope.obj
 0002:00001d00       $unwind$ccdEq              0000000180031d00     ccd_polytope.obj
 0002:00001d08       $unwind$ccdVec3Len2        0000000180031d08     ccd_polytope.obj
 0002:00001d10       $unwind$ccdVec3Copy        0000000180031d10     ccd_polytope.obj
 0002:00001d18       $unwind$ccdVec3Dot         0000000180031d18     ccd_polytope.obj
 0002:00001d20       $unwind$ccdSupportCopy     0000000180031d20     ccd_polytope.obj
 0002:00001d28       $unwind$ccdListEmpty       0000000180031d28     ccd_polytope.obj
 0002:00001d30       $unwind$ccdPtInit          0000000180031d30     ccd_polytope.obj
 0002:00001d38       $unwind$ccdPtDestroy       0000000180031d38     ccd_polytope.obj
 0002:00001d40       $unwind$ccdPtAddVertex     0000000180031d40     ccd_polytope.obj
 0002:00001d48       $unwind$ccdPtAddEdge       0000000180031d48     ccd_polytope.obj
 0002:00001d50       $unwind$ccdPtAddFace       0000000180031d50     ccd_polytope.obj
 0002:00001d58       $unwind$ccdPtDelVertex     0000000180031d58     ccd_polytope.obj
 0002:00001d60       $unwind$ccdPtDelEdge       0000000180031d60     ccd_polytope.obj
 0002:00001d68       $unwind$ccdPtDelFace       0000000180031d68     ccd_polytope.obj
 0002:00001d70       $unwind$ccdPtRecomputeDistances 0000000180031d70     ccd_polytope.obj
 0002:00001d78       $unwind$ccdPtNearest       0000000180031d78     ccd_polytope.obj
 0002:00001d80       $unwind$ccdPtDumpSVT       0000000180031d80     ccd_polytope.obj
 0002:00001d88       $unwind$ccdPtDumpSVT2      0000000180031d88     ccd_polytope.obj
 0002:00001d90       $unwind$_ccdPtNearestUpdate 0000000180031d90     ccd_polytope.obj
 0002:00001d98       $unwind$_ccdPtNearestRenew 0000000180031d98     ccd_polytope.obj
 0002:00001da0       $unwind$ccdIsZero          0000000180031da0     ccd_vec3.obj
 0002:00001da8       $unwind$ccdEq              0000000180031da8     ccd_vec3.obj
 0002:00001db0       $unwind$ccdVec3Len2        0000000180031db0     ccd_vec3.obj
 0002:00001db8       $unwind$ccdVec3Dist2       0000000180031db8     ccd_vec3.obj
 0002:00001dc8       $unwind$ccdVec3Copy        0000000180031dc8     ccd_vec3.obj
 0002:00001dd0       $unwind$ccdVec3Dot         0000000180031dd0     ccd_vec3.obj
 0002:00001dd8       $unwind$ccdVec3PointSegmentDist2 0000000180031dd8     ccd_vec3.obj
 0002:00001de0       $unwind$ccdVec3PointTriDist2 0000000180031de0     ccd_vec3.obj
 0002:00001df0       $unwind$__ccdVec3PointSegmentDist2 0000000180031df0     ccd_vec3.obj
 0002:00001e00       $unwind$ccdVec3Len2        0000000180031e00     collisioncodegen_CollisionGeometry.obj
 0002:00001e08       $unwind$ccdVec3Copy        0000000180031e08     collisioncodegen_CollisionGeometry.obj
 0002:00001e10       $unwind$ccdVec3Dot         0000000180031e10     collisioncodegen_CollisionGeometry.obj
 0002:00001e18       $unwind$ccdQuatLen2        0000000180031e18     collisioncodegen_CollisionGeometry.obj
 0002:00001e20       $unwind$ccdQuatCopy        0000000180031e20     collisioncodegen_CollisionGeometry.obj
 0002:00001e28       $unwind$ccdQuatInvert      0000000180031e28     collisioncodegen_CollisionGeometry.obj
 0002:00001e30       $unwind$ccdQuatInvert2     0000000180031e30     collisioncodegen_CollisionGeometry.obj
 0002:00001e38       $unwind$ccdQuatRotVec      0000000180031e38     collisioncodegen_CollisionGeometry.obj
 0002:00001e40       $unwind$??RCollisionGeometryDeleter@shared_robotics@@QEAAXPEAVCollisionGeometry@1@@Z 0000000180031e40     collisioncodegen_CollisionGeometry.obj
 0002:00001e48       $unwind$??1CollisionGeometry@shared_robotics@@UEAA@XZ 0000000180031e48     collisioncodegen_CollisionGeometry.obj
 0002:00001e50       $unwind$?support@CollisionGeometry@shared_robotics@@QEBAXPEBU_ccd_vec3_t@@PEAU3@@Z 0000000180031e50     collisioncodegen_CollisionGeometry.obj
 0002:00001e64       $cppxdata$?support@CollisionGeometry@shared_robotics@@QEBAXPEBU_ccd_vec3_t@@PEAU3@@Z 0000000180031e64     collisioncodegen_CollisionGeometry.obj
 0002:00001e6d       $stateUnwindMap$?support@CollisionGeometry@shared_robotics@@QEBAXPEBU_ccd_vec3_t@@PEAU3@@Z 0000000180031e6d     collisioncodegen_CollisionGeometry.obj
 0002:00001e73       $ip2state$?support@CollisionGeometry@shared_robotics@@QEBAXPEBU_ccd_vec3_t@@PEAU3@@Z 0000000180031e73     collisioncodegen_CollisionGeometry.obj
 0002:00001e84       $unwind$?dtor$0@?0??support@CollisionGeometry@shared_robotics@@QEBAXPEBU_ccd_vec3_t@@PEAU3@@Z@4HA 0000000180031e84     collisioncodegen_CollisionGeometry.obj
 0002:00001e8c       $unwind$?constructConnectionList@CollisionGeometry@shared_robotics@@IEAAXXZ 0000000180031e8c     collisioncodegen_CollisionGeometry.obj
 0002:00001e94       $unwind$??0exception@std@@QEAA@QEBDH@Z 0000000180031e94     collisioncodegen_CollisionGeometry.obj
 0002:00001e9c       $unwind$??0exception@std@@QEAA@AEBV01@@Z 0000000180031e9c     collisioncodegen_CollisionGeometry.obj
 0002:00001eac       $cppxdata$??0exception@std@@QEAA@AEBV01@@Z 0000000180031eac     collisioncodegen_CollisionGeometry.obj
 0002:00001eb1       $ip2state$??0exception@std@@QEAA@AEBV01@@Z 0000000180031eb1     collisioncodegen_CollisionGeometry.obj
 0002:00001eb4       $unwind$??1exception@std@@UEAA@XZ 0000000180031eb4     collisioncodegen_CollisionGeometry.obj
 0002:00001ec4       $cppxdata$??1exception@std@@UEAA@XZ 0000000180031ec4     collisioncodegen_CollisionGeometry.obj
 0002:00001ec9       $ip2state$??1exception@std@@UEAA@XZ 0000000180031ec9     collisioncodegen_CollisionGeometry.obj
 0002:00001ecc       $unwind$?what@exception@std@@UEBAPEBDXZ 0000000180031ecc     collisioncodegen_CollisionGeometry.obj
 0002:00001ed4       $unwind$??_Gexception@std@@UEAAPEAXI@Z 0000000180031ed4     collisioncodegen_CollisionGeometry.obj
 0002:00001edc       $unwind$??0bad_alloc@std@@AEAA@QEBD@Z 0000000180031edc     collisioncodegen_CollisionGeometry.obj
 0002:00001ee4       $unwind$??1bad_alloc@std@@UEAA@XZ 0000000180031ee4     collisioncodegen_CollisionGeometry.obj
 0002:00001eec       $unwind$??0bad_alloc@std@@QEAA@AEBV01@@Z 0000000180031eec     collisioncodegen_CollisionGeometry.obj
 0002:00001ef4       $unwind$??_Gbad_alloc@std@@UEAAPEAXI@Z 0000000180031ef4     collisioncodegen_CollisionGeometry.obj
 0002:00001efc       $unwind$??0bad_array_new_length@std@@QEAA@XZ 0000000180031efc     collisioncodegen_CollisionGeometry.obj
 0002:00001f04       $unwind$??1bad_array_new_length@std@@UEAA@XZ 0000000180031f04     collisioncodegen_CollisionGeometry.obj
 0002:00001f0c       $unwind$??0bad_array_new_length@std@@QEAA@AEBV01@@Z 0000000180031f0c     collisioncodegen_CollisionGeometry.obj
 0002:00001f14       $unwind$??_Gbad_array_new_length@std@@UEAAPEAXI@Z 0000000180031f14     collisioncodegen_CollisionGeometry.obj
 0002:00001f1c       $unwind$?_Throw_bad_array_new_length@std@@YAXXZ 0000000180031f1c     collisioncodegen_CollisionGeometry.obj
 0002:00001f24       $unwind$?_Allocate@_Default_allocate_traits@std@@SAPEAX_K@Z 0000000180031f24     collisioncodegen_CollisionGeometry.obj
 0002:00001f2c       $unwind$?_Adjust_manually_vector_aligned@std@@YAXAEAPEAXAEA_K@Z 0000000180031f2c     collisioncodegen_CollisionGeometry.obj
 0002:00001f34       $unwind$?length@?$_Narrow_char_traits@DH@std@@SA_KQEBD@Z 0000000180031f34     collisioncodegen_CollisionGeometry.obj
 0002:00001f44       $cppxdata$?length@?$_Narrow_char_traits@DH@std@@SA_KQEBD@Z 0000000180031f44     collisioncodegen_CollisionGeometry.obj
 0002:00001f49       $ip2state$?length@?$_Narrow_char_traits@DH@std@@SA_KQEBD@Z 0000000180031f49     collisioncodegen_CollisionGeometry.obj
 0002:00001f4c       $unwind$?eq_int_type@?$_Narrow_char_traits@DH@std@@SA_NAEBH0@Z 0000000180031f4c     collisioncodegen_CollisionGeometry.obj
 0002:00001f54       $unwind$?sign@CollisionGeometry@shared_robotics@@IEBAHN@Z 0000000180031f54     collisioncodegen_CollisionGeometry.obj
 0002:00001f5c       $unwind$?deallocate@?$allocator@U_ccd_vec3_t@@@std@@QEAAXQEAU_ccd_vec3_t@@_K@Z 0000000180031f5c     collisioncodegen_CollisionGeometry.obj
 0002:00001f64       $unwind$??1?$vector@U_ccd_vec3_t@@V?$allocator@U_ccd_vec3_t@@@std@@@std@@QEAA@XZ 0000000180031f64     collisioncodegen_CollisionGeometry.obj
 0002:00001f6c       $unwind$??A?$vector@U_ccd_vec3_t@@V?$allocator@U_ccd_vec3_t@@@std@@@std@@QEBAAEBU_ccd_vec3_t@@_K@Z 0000000180031f6c     collisioncodegen_CollisionGeometry.obj
 0002:00001f74       $unwind$?_Tidy@?$vector@U_ccd_vec3_t@@V?$allocator@U_ccd_vec3_t@@@std@@@std@@AEAAXXZ 0000000180031f74     collisioncodegen_CollisionGeometry.obj
 0002:00001f84       $cppxdata$?_Tidy@?$vector@U_ccd_vec3_t@@V?$allocator@U_ccd_vec3_t@@@std@@@std@@AEAAXXZ 0000000180031f84     collisioncodegen_CollisionGeometry.obj
 0002:00001f89       $ip2state$?_Tidy@?$vector@U_ccd_vec3_t@@V?$allocator@U_ccd_vec3_t@@@std@@@std@@AEAAXXZ 0000000180031f89     collisioncodegen_CollisionGeometry.obj
 0002:00001f8c       $unwind$?_Getal@?$vector@U_ccd_vec3_t@@V?$allocator@U_ccd_vec3_t@@@std@@@std@@AEAAAEAV?$allocator@U_ccd_vec3_t@@@2@XZ 0000000180031f8c     collisioncodegen_CollisionGeometry.obj
 0002:00001f94       $unwind$?deallocate@?$allocator@U_idx_vec3_t@shared_robotics@@@std@@QEAAXQEAU_idx_vec3_t@shared_robotics@@_K@Z 0000000180031f94     collisioncodegen_CollisionGeometry.obj
 0002:00001f9c       $unwind$??1?$vector@U_idx_vec3_t@shared_robotics@@V?$allocator@U_idx_vec3_t@shared_robotics@@@std@@@std@@QEAA@XZ 0000000180031f9c     collisioncodegen_CollisionGeometry.obj
 0002:00001fa4       $unwind$??A?$vector@U_idx_vec3_t@shared_robotics@@V?$allocator@U_idx_vec3_t@shared_robotics@@@std@@@std@@QEAAAEAU_idx_vec3_t@shared_robotics@@_K@Z 0000000180031fa4     collisioncodegen_CollisionGeometry.obj
 0002:00001fac       $unwind$?_Tidy@?$vector@U_idx_vec3_t@shared_robotics@@V?$allocator@U_idx_vec3_t@shared_robotics@@@std@@@std@@AEAAXXZ 0000000180031fac     collisioncodegen_CollisionGeometry.obj
 0002:00001fbc       $cppxdata$?_Tidy@?$vector@U_idx_vec3_t@shared_robotics@@V?$allocator@U_idx_vec3_t@shared_robotics@@@std@@@std@@AEAAXXZ 0000000180031fbc     collisioncodegen_CollisionGeometry.obj
 0002:00001fc1       $ip2state$?_Tidy@?$vector@U_idx_vec3_t@shared_robotics@@V?$allocator@U_idx_vec3_t@shared_robotics@@@std@@@std@@AEAAXXZ 0000000180031fc1     collisioncodegen_CollisionGeometry.obj
 0002:00001fc4       $unwind$?_Getal@?$vector@U_idx_vec3_t@shared_robotics@@V?$allocator@U_idx_vec3_t@shared_robotics@@@std@@@std@@AEAAAEAV?$allocator@U_idx_vec3_t@shared_robotics@@@2@XZ 0000000180031fc4     collisioncodegen_CollisionGeometry.obj
 0002:00001fcc       $unwind$?deallocate@?$allocator@V?$vector@_KV?$allocator@_K@std@@@std@@@std@@QEAAXQEAV?$vector@_KV?$allocator@_K@std@@@2@_K@Z 0000000180031fcc     collisioncodegen_CollisionGeometry.obj
 0002:00001fd4       $unwind$?allocate@?$allocator@V?$vector@_KV?$allocator@_K@std@@@std@@@std@@QEAAPEAV?$vector@_KV?$allocator@_K@std@@@2@_K@Z 0000000180031fd4     collisioncodegen_CollisionGeometry.obj
 0002:00001fdc       $unwind$??1?$vector@V?$vector@_KV?$allocator@_K@std@@@std@@V?$allocator@V?$vector@_KV?$allocator@_K@std@@@std@@@2@@std@@QEAA@XZ 0000000180031fdc     collisioncodegen_CollisionGeometry.obj
 0002:00001fe4       $unwind$?resize@?$vector@V?$vector@_KV?$allocator@_K@std@@@std@@V?$allocator@V?$vector@_KV?$allocator@_K@std@@@std@@@2@@std@@QEAAX_K@Z 0000000180031fe4     collisioncodegen_CollisionGeometry.obj
 0002:00001fec       $unwind$?max_size@?$vector@V?$vector@_KV?$allocator@_K@std@@@std@@V?$allocator@V?$vector@_KV?$allocator@_K@std@@@std@@@2@@std@@QEBA_KXZ 0000000180031fec     collisioncodegen_CollisionGeometry.obj
 0002:00001ff4       $unwind$?capacity@?$vector@V?$vector@_KV?$allocator@_K@std@@@std@@V?$allocator@V?$vector@_KV?$allocator@_K@std@@@std@@@2@@std@@QEBA_KXZ 0000000180031ff4     collisioncodegen_CollisionGeometry.obj
 0002:00001ffc       $unwind$??A?$vector@V?$vector@_KV?$allocator@_K@std@@@std@@V?$allocator@V?$vector@_KV?$allocator@_K@std@@@std@@@2@@std@@QEAAAEAV?$vector@_KV?$allocator@_K@std@@@1@_K@Z 0000000180031ffc     collisioncodegen_CollisionGeometry.obj
 0002:00002004       $unwind$??A?$vector@V?$vector@_KV?$allocator@_K@std@@@std@@V?$allocator@V?$vector@_KV?$allocator@_K@std@@@std@@@2@@std@@QEBAAEBV?$vector@_KV?$allocator@_K@std@@@1@_K@Z 0000000180032004     collisioncodegen_CollisionGeometry.obj
 0002:0000200c       $unwind$?_Calculate_growth@?$vector@V?$vector@_KV?$allocator@_K@std@@@std@@V?$allocator@V?$vector@_KV?$allocator@_K@std@@@std@@@2@@std@@AEBA_K_K@Z 000000018003200c     collisioncodegen_CollisionGeometry.obj
 0002:00002014       $unwind$?_Change_array@?$vector@V?$vector@_KV?$allocator@_K@std@@@std@@V?$allocator@V?$vector@_KV?$allocator@_K@std@@@std@@@2@@std@@AEAAXQEAV?$vector@_KV?$allocator@_K@std@@@2@_K1@Z 0000000180032014     collisioncodegen_CollisionGeometry.obj
 0002:0000201c       $unwind$?_Tidy@?$vector@V?$vector@_KV?$allocator@_K@std@@@std@@V?$allocator@V?$vector@_KV?$allocator@_K@std@@@std@@@2@@std@@AEAAXXZ 000000018003201c     collisioncodegen_CollisionGeometry.obj
 0002:0000202c       $cppxdata$?_Tidy@?$vector@V?$vector@_KV?$allocator@_K@std@@@std@@V?$allocator@V?$vector@_KV?$allocator@_K@std@@@std@@@2@@std@@AEAAXXZ 000000018003202c     collisioncodegen_CollisionGeometry.obj
 0002:00002031       $ip2state$?_Tidy@?$vector@V?$vector@_KV?$allocator@_K@std@@@std@@V?$allocator@V?$vector@_KV?$allocator@_K@std@@@std@@@2@@std@@AEAAXXZ 0000000180032031     collisioncodegen_CollisionGeometry.obj
 0002:00002034       $unwind$?_Xlength@?$vector@V?$vector@_KV?$allocator@_K@std@@@std@@V?$allocator@V?$vector@_KV?$allocator@_K@std@@@std@@@2@@std@@CAXXZ 0000000180032034     collisioncodegen_CollisionGeometry.obj
 0002:0000203c       $unwind$?_Getal@?$vector@V?$vector@_KV?$allocator@_K@std@@@std@@V?$allocator@V?$vector@_KV?$allocator@_K@std@@@std@@@2@@std@@AEAAAEAV?$allocator@V?$vector@_KV?$allocator@_K@std@@@std@@@2@XZ 000000018003203c     collisioncodegen_CollisionGeometry.obj
 0002:00002044       $unwind$?_Getal@?$vector@V?$vector@_KV?$allocator@_K@std@@@std@@V?$allocator@V?$vector@_KV?$allocator@_K@std@@@std@@@2@@std@@AEBAAEBV?$allocator@V?$vector@_KV?$allocator@_K@std@@@std@@@2@XZ 0000000180032044     collisioncodegen_CollisionGeometry.obj
 0002:0000204c       $unwind$??_GCollisionGeometry@shared_robotics@@UEAAPEAXI@Z 000000018003204c     collisioncodegen_CollisionGeometry.obj
 0002:00002054       $unwind$?deallocate@?$allocator@N@std@@QEAAXQEAN_K@Z 0000000180032054     collisioncodegen_CollisionGeometry.obj
 0002:0000205c       $unwind$?allocate@?$allocator@N@std@@QEAAPEAN_K@Z 000000018003205c     collisioncodegen_CollisionGeometry.obj
 0002:00002064       $unwind$??0?$vector@NV?$allocator@N@std@@@std@@QEAA@XZ 0000000180032064     collisioncodegen_CollisionGeometry.obj
 0002:0000206c       $unwind$??1?$vector@NV?$allocator@N@std@@@std@@QEAA@XZ 000000018003206c     collisioncodegen_CollisionGeometry.obj
 0002:00002074       $unwind$?push_back@?$vector@NV?$allocator@N@std@@@std@@QEAAX$$QEAN@Z 0000000180032074     collisioncodegen_CollisionGeometry.obj
 0002:0000207c       $unwind$?begin@?$vector@NV?$allocator@N@std@@@std@@QEAA?AV?$_Vector_iterator@V?$_Vector_val@U?$_Simple_types@N@std@@@std@@@2@XZ 000000018003207c     collisioncodegen_CollisionGeometry.obj
 0002:00002084       $unwind$?end@?$vector@NV?$allocator@N@std@@@std@@QEAA?AV?$_Vector_iterator@V?$_Vector_val@U?$_Simple_types@N@std@@@std@@@2@XZ 0000000180032084     collisioncodegen_CollisionGeometry.obj
 0002:0000208c       $unwind$?max_size@?$vector@NV?$allocator@N@std@@@std@@QEBA_KXZ 000000018003208c     collisioncodegen_CollisionGeometry.obj
 0002:00002094       $unwind$?capacity@?$vector@NV?$allocator@N@std@@@std@@QEBA_KXZ 0000000180032094     collisioncodegen_CollisionGeometry.obj
 0002:0000209c       $unwind$?_Calculate_growth@?$vector@NV?$allocator@N@std@@@std@@AEBA_K_K@Z 000000018003209c     collisioncodegen_CollisionGeometry.obj
 0002:000020a4       $unwind$?_Change_array@?$vector@NV?$allocator@N@std@@@std@@AEAAXQEAN_K1@Z 00000001800320a4     collisioncodegen_CollisionGeometry.obj
 0002:000020ac       $unwind$?_Tidy@?$vector@NV?$allocator@N@std@@@std@@AEAAXXZ 00000001800320ac     collisioncodegen_CollisionGeometry.obj
 0002:000020bc       $cppxdata$?_Tidy@?$vector@NV?$allocator@N@std@@@std@@AEAAXXZ 00000001800320bc     collisioncodegen_CollisionGeometry.obj
 0002:000020c1       $ip2state$?_Tidy@?$vector@NV?$allocator@N@std@@@std@@AEAAXXZ 00000001800320c1     collisioncodegen_CollisionGeometry.obj
 0002:000020c4       $unwind$?_Xlength@?$vector@NV?$allocator@N@std@@@std@@CAXXZ 00000001800320c4     collisioncodegen_CollisionGeometry.obj
 0002:000020cc       $unwind$?_Getal@?$vector@NV?$allocator@N@std@@@std@@AEAAAEAV?$allocator@N@2@XZ 00000001800320cc     collisioncodegen_CollisionGeometry.obj
 0002:000020d4       $unwind$?_Getal@?$vector@NV?$allocator@N@std@@@std@@AEBAAEBV?$allocator@N@2@XZ 00000001800320d4     collisioncodegen_CollisionGeometry.obj
 0002:000020dc       $unwind$??0?$_Vector_const_iterator@V?$_Vector_val@U?$_Simple_types@N@std@@@std@@@std@@QEAA@PEANPEBU_Container_base0@1@@Z 00000001800320dc     collisioncodegen_CollisionGeometry.obj
 0002:000020e4       $unwind$??G?$_Vector_const_iterator@V?$_Vector_val@U?$_Simple_types@N@std@@@std@@@std@@QEBA_JAEBV01@@Z 00000001800320e4     collisioncodegen_CollisionGeometry.obj
 0002:000020ec       $unwind$?_Seek_to@?$_Vector_const_iterator@V?$_Vector_val@U?$_Simple_types@N@std@@@std@@@std@@QEAAXPEBN@Z 00000001800320ec     collisioncodegen_CollisionGeometry.obj
 0002:000020f4       $unwind$?_Unwrapped@?$_Vector_iterator@V?$_Vector_val@U?$_Simple_types@N@std@@@std@@@std@@QEBAPEANXZ 00000001800320f4     collisioncodegen_CollisionGeometry.obj
 0002:000020fc       $unwind$??0?$_Vector_iterator@V?$_Vector_val@U?$_Simple_types@N@std@@@std@@@std@@QEAA@PEANPEBU_Container_base0@1@@Z 00000001800320fc     collisioncodegen_CollisionGeometry.obj
 0002:00002104       $unwind$??$max_element@V?$_Vector_iterator@V?$_Vector_val@U?$_Simple_types@N@std@@@std@@@std@@@std@@YA?AV?$_Vector_iterator@V?$_Vector_val@U?$_Simple_types@N@std@@@std@@@0@V10@0@Z 0000000180032104     collisioncodegen_CollisionGeometry.obj
 0002:0000210c       $unwind$?deallocate@?$allocator@_K@std@@QEAAXQEA_K_K@Z 000000018003210c     collisioncodegen_CollisionGeometry.obj
 0002:00002114       $unwind$?allocate@?$allocator@_K@std@@QEAAPEA_K_K@Z 0000000180032114     collisioncodegen_CollisionGeometry.obj
 0002:0000211c       $unwind$??0?$vector@_KV?$allocator@_K@std@@@std@@QEAA@XZ 000000018003211c     collisioncodegen_CollisionGeometry.obj
 0002:00002124       $unwind$??0?$vector@_KV?$allocator@_K@std@@@std@@QEAA@$$QEAV01@@Z 0000000180032124     collisioncodegen_CollisionGeometry.obj
 0002:0000212c       $unwind$??1?$vector@_KV?$allocator@_K@std@@@std@@QEAA@XZ 000000018003212c     collisioncodegen_CollisionGeometry.obj
 0002:00002134       $unwind$?push_back@?$vector@_KV?$allocator@_K@std@@@std@@QEAAXAEB_K@Z 0000000180032134     collisioncodegen_CollisionGeometry.obj
 0002:0000213c       $unwind$?resize@?$vector@_KV?$allocator@_K@std@@@std@@QEAAX_K@Z 000000018003213c     collisioncodegen_CollisionGeometry.obj
 0002:00002144       $unwind$?erase@?$vector@_KV?$allocator@_K@std@@@std@@QEAA?AV?$_Vector_iterator@V?$_Vector_val@U?$_Simple_types@_K@std@@@std@@@2@V?$_Vector_const_iterator@V?$_Vector_val@U?$_Simple_types@_K@std@@@std@@@2@0@Z 0000000180032144     collisioncodegen_CollisionGeometry.obj
 0002:00002154       $cppxdata$?erase@?$vector@_KV?$allocator@_K@std@@@std@@QEAA?AV?$_Vector_iterator@V?$_Vector_val@U?$_Simple_types@_K@std@@@std@@@2@V?$_Vector_const_iterator@V?$_Vector_val@U?$_Simple_types@_K@std@@@std@@@2@0@Z 0000000180032154     collisioncodegen_CollisionGeometry.obj
 0002:00002159       $ip2state$?erase@?$vector@_KV?$allocator@_K@std@@@std@@QEAA?AV?$_Vector_iterator@V?$_Vector_val@U?$_Simple_types@_K@std@@@std@@@2@V?$_Vector_const_iterator@V?$_Vector_val@U?$_Simple_types@_K@std@@@std@@@2@0@Z 0000000180032159     collisioncodegen_CollisionGeometry.obj
 0002:0000215c       $unwind$?clear@?$vector@_KV?$allocator@_K@std@@@std@@QEAAXXZ 000000018003215c     collisioncodegen_CollisionGeometry.obj
 0002:00002164       $unwind$?begin@?$vector@_KV?$allocator@_K@std@@@std@@QEAA?AV?$_Vector_iterator@V?$_Vector_val@U?$_Simple_types@_K@std@@@std@@@2@XZ 0000000180032164     collisioncodegen_CollisionGeometry.obj
 0002:0000216c       $unwind$?end@?$vector@_KV?$allocator@_K@std@@@std@@QEAA?AV?$_Vector_iterator@V?$_Vector_val@U?$_Simple_types@_K@std@@@std@@@2@XZ 000000018003216c     collisioncodegen_CollisionGeometry.obj
 0002:00002174       $unwind$?size@?$vector@_KV?$allocator@_K@std@@@std@@QEBA_KXZ 0000000180032174     collisioncodegen_CollisionGeometry.obj
 0002:0000217c       $unwind$?max_size@?$vector@_KV?$allocator@_K@std@@@std@@QEBA_KXZ 000000018003217c     collisioncodegen_CollisionGeometry.obj
 0002:00002184       $unwind$?capacity@?$vector@_KV?$allocator@_K@std@@@std@@QEBA_KXZ 0000000180032184     collisioncodegen_CollisionGeometry.obj
 0002:0000218c       $unwind$??A?$vector@_KV?$allocator@_K@std@@@std@@QEBAAEB_K_K@Z 000000018003218c     collisioncodegen_CollisionGeometry.obj
 0002:00002194       $unwind$?_Calculate_growth@?$vector@_KV?$allocator@_K@std@@@std@@AEBA_K_K@Z 0000000180032194     collisioncodegen_CollisionGeometry.obj
 0002:0000219c       $unwind$?_Change_array@?$vector@_KV?$allocator@_K@std@@@std@@AEAAXQEA_K_K1@Z 000000018003219c     collisioncodegen_CollisionGeometry.obj
 0002:000021a4       $unwind$?_Tidy@?$vector@_KV?$allocator@_K@std@@@std@@AEAAXXZ 00000001800321a4     collisioncodegen_CollisionGeometry.obj
 0002:000021b4       $cppxdata$?_Tidy@?$vector@_KV?$allocator@_K@std@@@std@@AEAAXXZ 00000001800321b4     collisioncodegen_CollisionGeometry.obj
 0002:000021b9       $ip2state$?_Tidy@?$vector@_KV?$allocator@_K@std@@@std@@AEAAXXZ 00000001800321b9     collisioncodegen_CollisionGeometry.obj
 0002:000021bc       $unwind$?_Xlength@?$vector@_KV?$allocator@_K@std@@@std@@CAXXZ 00000001800321bc     collisioncodegen_CollisionGeometry.obj
 0002:000021c4       $unwind$?_Getal@?$vector@_KV?$allocator@_K@std@@@std@@AEAAAEAV?$allocator@_K@2@XZ 00000001800321c4     collisioncodegen_CollisionGeometry.obj
 0002:000021cc       $unwind$?_Getal@?$vector@_KV?$allocator@_K@std@@@std@@AEBAAEBV?$allocator@_K@2@XZ 00000001800321cc     collisioncodegen_CollisionGeometry.obj
 0002:000021d4       $unwind$??_G?$vector@_KV?$allocator@_K@std@@@std@@QEAAPEAXI@Z 00000001800321d4     collisioncodegen_CollisionGeometry.obj
 0002:000021dc       $unwind$??$?6U?$char_traits@D@std@@@std@@YAAEAV?$basic_ostream@DU?$char_traits@D@std@@@0@AEAV10@PEBD@Z 00000001800321dc     collisioncodegen_CollisionGeometry.obj
 0002:000021ec       $cppxdata$??$?6U?$char_traits@D@std@@@std@@YAAEAV?$basic_ostream@DU?$char_traits@D@std@@@0@AEAV10@PEBD@Z 00000001800321ec     collisioncodegen_CollisionGeometry.obj
 0002:000021f9       $stateUnwindMap$??$?6U?$char_traits@D@std@@@std@@YAAEAV?$basic_ostream@DU?$char_traits@D@std@@@0@AEAV10@PEBD@Z 00000001800321f9     collisioncodegen_CollisionGeometry.obj
 0002:00002201       $tryMap$??$?6U?$char_traits@D@std@@@std@@YAAEAV?$basic_ostream@DU?$char_traits@D@std@@@0@AEAV10@PEBD@Z 0000000180032201     collisioncodegen_CollisionGeometry.obj
 0002:00002209       $handlerMap$??$?6U?$char_traits@D@std@@@std@@YAAEAV?$basic_ostream@DU?$char_traits@D@std@@@0@AEAV10@PEBD@Z 0000000180032209     collisioncodegen_CollisionGeometry.obj
 0002:00002210       $ip2state$??$?6U?$char_traits@D@std@@@std@@YAAEAV?$basic_ostream@DU?$char_traits@D@std@@@0@AEAV10@PEBD@Z 0000000180032210     collisioncodegen_CollisionGeometry.obj
 0002:00002220       $unwind$?dtor$0@?0???$?6U?$char_traits@D@std@@@std@@YAAEAV?$basic_ostream@DU?$char_traits@D@std@@@0@AEAV10@PEBD@Z@4HA 0000000180032220     collisioncodegen_CollisionGeometry.obj
 0002:00002228       $unwind$?catch$1@?0???$?6U?$char_traits@D@std@@@std@@YAAEAV?$basic_ostream@DU?$char_traits@D@std@@@0@AEAV10@PEBD@Z@4HA 0000000180032228     collisioncodegen_CollisionGeometry.obj
 0002:00002230       $unwind$??$endl@DU?$char_traits@D@std@@@std@@YAAEAV?$basic_ostream@DU?$char_traits@D@std@@@0@AEAV10@@Z 0000000180032230     collisioncodegen_CollisionGeometry.obj
 0002:00002238       $unwind$??0?$_Vector_const_iterator@V?$_Vector_val@U?$_Simple_types@_K@std@@@std@@@std@@QEAA@PEA_KPEBU_Container_base0@1@@Z 0000000180032238     collisioncodegen_CollisionGeometry.obj
 0002:00002240       $unwind$?_Seek_to@?$_Vector_const_iterator@V?$_Vector_val@U?$_Simple_types@_K@std@@@std@@@std@@QEAAXPEB_K@Z 0000000180032240     collisioncodegen_CollisionGeometry.obj
 0002:00002248       $unwind$?_Unwrapped@?$_Vector_iterator@V?$_Vector_val@U?$_Simple_types@_K@std@@@std@@@std@@QEBAPEA_KXZ 0000000180032248     collisioncodegen_CollisionGeometry.obj
 0002:00002250       $unwind$??0?$_Vector_iterator@V?$_Vector_val@U?$_Simple_types@_K@std@@@std@@@std@@QEAA@PEA_KPEBU_Container_base0@1@@Z 0000000180032250     collisioncodegen_CollisionGeometry.obj
 0002:00002258       $unwind$??$sort@V?$_Vector_iterator@V?$_Vector_val@U?$_Simple_types@_K@std@@@std@@@std@@@std@@YAXV?$_Vector_iterator@V?$_Vector_val@U?$_Simple_types@_K@std@@@std@@@0@0@Z 0000000180032258     collisioncodegen_CollisionGeometry.obj
 0002:00002260       $unwind$??$unique@V?$_Vector_iterator@V?$_Vector_val@U?$_Simple_types@_K@std@@@std@@@std@@@std@@YA?AV?$_Vector_iterator@V?$_Vector_val@U?$_Simple_types@_K@std@@@std@@@0@V10@0@Z 0000000180032260     collisioncodegen_CollisionGeometry.obj
 0002:00002268       $unwind$??$_Move_unchecked@PEA_KPEA_K@std@@YAPEA_KPEA_K00@Z 0000000180032268     collisioncodegen_CollisionGeometry.obj
 0002:00002270       $unwind$??$_Resize@U_Value_init_tag@std@@@?$vector@_KV?$allocator@_K@std@@@std@@AEAAX_KAEBU_Value_init_tag@1@@Z 0000000180032270     collisioncodegen_CollisionGeometry.obj
 0002:00002278       $unwind$??$_Emplace_one_at_back@AEB_K@?$vector@_KV?$allocator@_K@std@@@std@@AEAAAEA_KAEB_K@Z 0000000180032278     collisioncodegen_CollisionGeometry.obj
 0002:00002280       $unwind$??$_Emplace_one_at_back@N@?$vector@NV?$allocator@N@std@@@std@@AEAAAEAN$$QEAN@Z 0000000180032280     collisioncodegen_CollisionGeometry.obj
 0002:00002288       $unwind$??$?0$$V@?$_Compressed_pair@V?$allocator@N@std@@V?$_Vector_val@U?$_Simple_types@N@std@@@2@$00@std@@QEAA@U_Zero_then_variadic_args_t@1@@Z 0000000180032288     collisioncodegen_CollisionGeometry.obj
 0002:00002290       $unwind$??$_Resize@U_Value_init_tag@std@@@?$vector@V?$vector@_KV?$allocator@_K@std@@@std@@V?$allocator@V?$vector@_KV?$allocator@_K@std@@@std@@@2@@std@@AEAAX_KAEBU_Value_init_tag@1@@Z 0000000180032290     collisioncodegen_CollisionGeometry.obj
 0002:00002298       $unwind$??$min@_K@std@@YAAEB_KAEB_K0@Z 0000000180032298     collisioncodegen_CollisionGeometry.obj
 0002:000022a0       $unwind$??$_Destroy_range@V?$allocator@V?$vector@_KV?$allocator@_K@std@@@std@@@std@@@std@@YAXPEAV?$vector@_KV?$allocator@_K@std@@@0@QEAV10@AEAV?$allocator@V?$vector@_KV?$allocator@_K@std@@@std@@@0@@Z 00000001800322a0     collisioncodegen_CollisionGeometry.obj
 0002:000022b0       $cppxdata$??$_Destroy_range@V?$allocator@V?$vector@_KV?$allocator@_K@std@@@std@@@std@@@std@@YAXPEAV?$vector@_KV?$allocator@_K@std@@@0@QEAV10@AEAV?$allocator@V?$vector@_KV?$allocator@_K@std@@@std@@@0@@Z 00000001800322b0     collisioncodegen_CollisionGeometry.obj
 0002:000022b5       $ip2state$??$_Destroy_range@V?$allocator@V?$vector@_KV?$allocator@_K@std@@@std@@@std@@@std@@YAXPEAV?$vector@_KV?$allocator@_K@std@@@0@QEAV10@AEAV?$allocator@V?$vector@_KV?$allocator@_K@std@@@std@@@0@@Z 00000001800322b5     collisioncodegen_CollisionGeometry.obj
 0002:000022b8       $unwind$??$_Deallocate@$0BA@$0A@@std@@YAXPEAX_K@Z 00000001800322b8     collisioncodegen_CollisionGeometry.obj
 0002:000022c8       $cppxdata$??$_Deallocate@$0BA@$0A@@std@@YAXPEAX_K@Z 00000001800322c8     collisioncodegen_CollisionGeometry.obj
 0002:000022cd       $ip2state$??$_Deallocate@$0BA@$0A@@std@@YAXPEAX_K@Z 00000001800322cd     collisioncodegen_CollisionGeometry.obj
 0002:000022d0       $unwind$??$max_element@V?$_Vector_iterator@V?$_Vector_val@U?$_Simple_types@N@std@@@std@@@std@@U?$less@X@2@@std@@YA?AV?$_Vector_iterator@V?$_Vector_val@U?$_Simple_types@N@std@@@std@@@0@V10@0U?$less@X@0@@Z 00000001800322d0     collisioncodegen_CollisionGeometry.obj
 0002:000022d8       $unwind$??0_Sentry_base@?$basic_ostream@DU?$char_traits@D@std@@@std@@QEAA@AEAV12@@Z 00000001800322d8     collisioncodegen_CollisionGeometry.obj
 0002:000022e0       $unwind$??1_Sentry_base@?$basic_ostream@DU?$char_traits@D@std@@@std@@QEAA@XZ 00000001800322e0     collisioncodegen_CollisionGeometry.obj
 0002:000022f0       $cppxdata$??1_Sentry_base@?$basic_ostream@DU?$char_traits@D@std@@@std@@QEAA@XZ 00000001800322f0     collisioncodegen_CollisionGeometry.obj
 0002:000022f5       $ip2state$??1_Sentry_base@?$basic_ostream@DU?$char_traits@D@std@@@std@@QEAA@XZ 00000001800322f5     collisioncodegen_CollisionGeometry.obj
 0002:000022f8       $unwind$??0sentry@?$basic_ostream@DU?$char_traits@D@std@@@std@@QEAA@AEAV12@@Z 00000001800322f8     collisioncodegen_CollisionGeometry.obj
 0002:00002308       $cppxdata$??0sentry@?$basic_ostream@DU?$char_traits@D@std@@@std@@QEAA@AEAV12@@Z 0000000180032308     collisioncodegen_CollisionGeometry.obj
 0002:00002311       $stateUnwindMap$??0sentry@?$basic_ostream@DU?$char_traits@D@std@@@std@@QEAA@AEAV12@@Z 0000000180032311     collisioncodegen_CollisionGeometry.obj
 0002:00002317       $ip2state$??0sentry@?$basic_ostream@DU?$char_traits@D@std@@@std@@QEAA@AEAV12@@Z 0000000180032317     collisioncodegen_CollisionGeometry.obj
 0002:00002320       $unwind$?dtor$0@?0???0sentry@?$basic_ostream@DU?$char_traits@D@std@@@std@@QEAA@AEAV12@@Z@4HA 0000000180032320     collisioncodegen_CollisionGeometry.obj
 0002:00002328       $unwind$??1sentry@?$basic_ostream@DU?$char_traits@D@std@@@std@@QEAA@XZ 0000000180032328     collisioncodegen_CollisionGeometry.obj
 0002:00002330       $unwind$??$sort@V?$_Vector_iterator@V?$_Vector_val@U?$_Simple_types@_K@std@@@std@@@std@@U?$less@X@2@@std@@YAXV?$_Vector_iterator@V?$_Vector_val@U?$_Simple_types@_K@std@@@std@@@0@0U?$less@X@0@@Z 0000000180032330     collisioncodegen_CollisionGeometry.obj
 0002:00002338       $unwind$??$unique@V?$_Vector_iterator@V?$_Vector_val@U?$_Simple_types@_K@std@@@std@@@std@@U?$equal_to@X@2@@std@@YA?AV?$_Vector_iterator@V?$_Vector_val@U?$_Simple_types@_K@std@@@std@@@0@V10@0U?$equal_to@X@0@@Z 0000000180032338     collisioncodegen_CollisionGeometry.obj
 0002:00002340       $unwind$??$_Copy_memmove@PEA_KPEA_K@std@@YAPEA_KPEA_K00@Z 0000000180032340     collisioncodegen_CollisionGeometry.obj
 0002:00002348       $unwind$??$_Resize_reallocate@U_Value_init_tag@std@@@?$vector@_KV?$allocator@_K@std@@@std@@AEAAX_KAEBU_Value_init_tag@1@@Z 0000000180032348     collisioncodegen_CollisionGeometry.obj
 0002:00002358       $cppxdata$??$_Resize_reallocate@U_Value_init_tag@std@@@?$vector@_KV?$allocator@_K@std@@@std@@AEAAX_KAEBU_Value_init_tag@1@@Z 0000000180032358     collisioncodegen_CollisionGeometry.obj
 0002:00002365       $stateUnwindMap$??$_Resize_reallocate@U_Value_init_tag@std@@@?$vector@_KV?$allocator@_K@std@@@std@@AEAAX_KAEBU_Value_init_tag@1@@Z 0000000180032365     collisioncodegen_CollisionGeometry.obj
 0002:00002368       $tryMap$??$_Resize_reallocate@U_Value_init_tag@std@@@?$vector@_KV?$allocator@_K@std@@@std@@AEAAX_KAEBU_Value_init_tag@1@@Z 0000000180032368     collisioncodegen_CollisionGeometry.obj
 0002:00002370       $handlerMap$??$_Resize_reallocate@U_Value_init_tag@std@@@?$vector@_KV?$allocator@_K@std@@@std@@AEAAX_KAEBU_Value_init_tag@1@@Z 0000000180032370     collisioncodegen_CollisionGeometry.obj
 0002:00002377       $ip2state$??$_Resize_reallocate@U_Value_init_tag@std@@@?$vector@_KV?$allocator@_K@std@@@std@@AEAAX_KAEBU_Value_init_tag@1@@Z 0000000180032377     collisioncodegen_CollisionGeometry.obj
 0002:00002380       $unwind$?catch$0@?0???$_Resize_reallocate@U_Value_init_tag@std@@@?$vector@_KV?$allocator@_K@std@@@std@@AEAAX_KAEBU_Value_init_tag@1@@Z@4HA 0000000180032380     collisioncodegen_CollisionGeometry.obj
 0002:00002388       $unwind$??$_Uninitialized_value_construct_n@V?$allocator@_K@std@@@std@@YAPEA_KPEA_K_KAEAV?$allocator@_K@0@@Z 0000000180032388     collisioncodegen_CollisionGeometry.obj
 0002:00002398       $cppxdata$??$_Uninitialized_value_construct_n@V?$allocator@_K@std@@@std@@YAPEA_KPEA_K_KAEAV?$allocator@_K@0@@Z 0000000180032398     collisioncodegen_CollisionGeometry.obj
 0002:000023a1       $stateUnwindMap$??$_Uninitialized_value_construct_n@V?$allocator@_K@std@@@std@@YAPEA_KPEA_K_KAEAV?$allocator@_K@0@@Z 00000001800323a1     collisioncodegen_CollisionGeometry.obj
 0002:000023a7       $ip2state$??$_Uninitialized_value_construct_n@V?$allocator@_K@std@@@std@@YAPEA_KPEA_K_KAEAV?$allocator@_K@0@@Z 00000001800323a7     collisioncodegen_CollisionGeometry.obj
 0002:000023ac       $unwind$?dtor$0@?0???$_Uninitialized_value_construct_n@V?$allocator@_K@std@@@std@@YAPEA_KPEA_K_KAEAV?$allocator@_K@0@@Z@4HA 00000001800323ac     collisioncodegen_CollisionGeometry.obj
 0002:000023b4       $unwind$??$_Emplace_back_with_unused_capacity@AEB_K@?$vector@_KV?$allocator@_K@std@@@std@@AEAAAEA_KAEB_K@Z 00000001800323b4     collisioncodegen_CollisionGeometry.obj
 0002:000023bc       $unwind$??$_Emplace_reallocate@AEB_K@?$vector@_KV?$allocator@_K@std@@@std@@AEAAPEA_KQEA_KAEB_K@Z 00000001800323bc     collisioncodegen_CollisionGeometry.obj
 0002:000023cc       $cppxdata$??$_Emplace_reallocate@AEB_K@?$vector@_KV?$allocator@_K@std@@@std@@AEAAPEA_KQEA_KAEB_K@Z 00000001800323cc     collisioncodegen_CollisionGeometry.obj
 0002:000023d9       $stateUnwindMap$??$_Emplace_reallocate@AEB_K@?$vector@_KV?$allocator@_K@std@@@std@@AEAAPEA_KQEA_KAEB_K@Z 00000001800323d9     collisioncodegen_CollisionGeometry.obj
 0002:000023dc       $tryMap$??$_Emplace_reallocate@AEB_K@?$vector@_KV?$allocator@_K@std@@@std@@AEAAPEA_KQEA_KAEB_K@Z 00000001800323dc     collisioncodegen_CollisionGeometry.obj
 0002:000023e4       $handlerMap$??$_Emplace_reallocate@AEB_K@?$vector@_KV?$allocator@_K@std@@@std@@AEAAPEA_KQEA_KAEB_K@Z 00000001800323e4     collisioncodegen_CollisionGeometry.obj
 0002:000023eb       $ip2state$??$_Emplace_reallocate@AEB_K@?$vector@_KV?$allocator@_K@std@@@std@@AEAAPEA_KQEA_KAEB_K@Z 00000001800323eb     collisioncodegen_CollisionGeometry.obj
 0002:000023f4       $unwind$?catch$0@?0???$_Emplace_reallocate@AEB_K@?$vector@_KV?$allocator@_K@std@@@std@@AEAAPEA_KQEA_KAEB_K@Z@4HA 00000001800323f4     collisioncodegen_CollisionGeometry.obj
 0002:000023fc       $unwind$??$_Emplace_back_with_unused_capacity@N@?$vector@NV?$allocator@N@std@@@std@@AEAAAEAN$$QEAN@Z 00000001800323fc     collisioncodegen_CollisionGeometry.obj
 0002:00002404       $unwind$??$_Emplace_reallocate@N@?$vector@NV?$allocator@N@std@@@std@@AEAAPEANQEAN$$QEAN@Z 0000000180032404     collisioncodegen_CollisionGeometry.obj
 0002:00002414       $cppxdata$??$_Emplace_reallocate@N@?$vector@NV?$allocator@N@std@@@std@@AEAAPEANQEAN$$QEAN@Z 0000000180032414     collisioncodegen_CollisionGeometry.obj
 0002:00002421       $stateUnwindMap$??$_Emplace_reallocate@N@?$vector@NV?$allocator@N@std@@@std@@AEAAPEANQEAN$$QEAN@Z 0000000180032421     collisioncodegen_CollisionGeometry.obj
 0002:00002424       $tryMap$??$_Emplace_reallocate@N@?$vector@NV?$allocator@N@std@@@std@@AEAAPEANQEAN$$QEAN@Z 0000000180032424     collisioncodegen_CollisionGeometry.obj
 0002:0000242c       $handlerMap$??$_Emplace_reallocate@N@?$vector@NV?$allocator@N@std@@@std@@AEAAPEANQEAN$$QEAN@Z 000000018003242c     collisioncodegen_CollisionGeometry.obj
 0002:00002433       $ip2state$??$_Emplace_reallocate@N@?$vector@NV?$allocator@N@std@@@std@@AEAAPEANQEAN$$QEAN@Z 0000000180032433     collisioncodegen_CollisionGeometry.obj
 0002:0000243c       $unwind$?catch$0@?0???$_Emplace_reallocate@N@?$vector@NV?$allocator@N@std@@@std@@AEAAPEANQEAN$$QEAN@Z@4HA 000000018003243c     collisioncodegen_CollisionGeometry.obj
 0002:00002444       $unwind$??$_Resize_reallocate@U_Value_init_tag@std@@@?$vector@V?$vector@_KV?$allocator@_K@std@@@std@@V?$allocator@V?$vector@_KV?$allocator@_K@std@@@std@@@2@@std@@AEAAX_KAEBU_Value_init_tag@1@@Z 0000000180032444     collisioncodegen_CollisionGeometry.obj
 0002:00002454       $cppxdata$??$_Resize_reallocate@U_Value_init_tag@std@@@?$vector@V?$vector@_KV?$allocator@_K@std@@@std@@V?$allocator@V?$vector@_KV?$allocator@_K@std@@@std@@@2@@std@@AEAAX_KAEBU_Value_init_tag@1@@Z 0000000180032454     collisioncodegen_CollisionGeometry.obj
 0002:00002461       $stateUnwindMap$??$_Resize_reallocate@U_Value_init_tag@std@@@?$vector@V?$vector@_KV?$allocator@_K@std@@@std@@V?$allocator@V?$vector@_KV?$allocator@_K@std@@@std@@@2@@std@@AEAAX_KAEBU_Value_init_tag@1@@Z 0000000180032461     collisioncodegen_CollisionGeometry.obj
 0002:00002464       $tryMap$??$_Resize_reallocate@U_Value_init_tag@std@@@?$vector@V?$vector@_KV?$allocator@_K@std@@@std@@V?$allocator@V?$vector@_KV?$allocator@_K@std@@@std@@@2@@std@@AEAAX_KAEBU_Value_init_tag@1@@Z 0000000180032464     collisioncodegen_CollisionGeometry.obj
 0002:0000246c       $handlerMap$??$_Resize_reallocate@U_Value_init_tag@std@@@?$vector@V?$vector@_KV?$allocator@_K@std@@@std@@V?$allocator@V?$vector@_KV?$allocator@_K@std@@@std@@@2@@std@@AEAAX_KAEBU_Value_init_tag@1@@Z 000000018003246c     collisioncodegen_CollisionGeometry.obj
 0002:00002473       $ip2state$??$_Resize_reallocate@U_Value_init_tag@std@@@?$vector@V?$vector@_KV?$allocator@_K@std@@@std@@V?$allocator@V?$vector@_KV?$allocator@_K@std@@@std@@@2@@std@@AEAAX_KAEBU_Value_init_tag@1@@Z 0000000180032473     collisioncodegen_CollisionGeometry.obj
 0002:0000247c       $unwind$?catch$0@?0???$_Resize_reallocate@U_Value_init_tag@std@@@?$vector@V?$vector@_KV?$allocator@_K@std@@@std@@V?$allocator@V?$vector@_KV?$allocator@_K@std@@@std@@@2@@std@@AEAAX_KAEBU_Value_init_tag@1@@Z@4HA 000000018003247c     collisioncodegen_CollisionGeometry.obj
 0002:00002484       $unwind$??$_Uninitialized_value_construct_n@V?$allocator@V?$vector@_KV?$allocator@_K@std@@@std@@@std@@@std@@YAPEAV?$vector@_KV?$allocator@_K@std@@@0@PEAV10@_KAEAV?$allocator@V?$vector@_KV?$allocator@_K@std@@@std@@@0@@Z 0000000180032484     collisioncodegen_CollisionGeometry.obj
 0002:00002494       $cppxdata$??$_Uninitialized_value_construct_n@V?$allocator@V?$vector@_KV?$allocator@_K@std@@@std@@@std@@@std@@YAPEAV?$vector@_KV?$allocator@_K@std@@@0@PEAV10@_KAEAV?$allocator@V?$vector@_KV?$allocator@_K@std@@@std@@@0@@Z 0000000180032494     collisioncodegen_CollisionGeometry.obj
 0002:0000249d       $stateUnwindMap$??$_Uninitialized_value_construct_n@V?$allocator@V?$vector@_KV?$allocator@_K@std@@@std@@@std@@@std@@YAPEAV?$vector@_KV?$allocator@_K@std@@@0@PEAV10@_KAEAV?$allocator@V?$vector@_KV?$allocator@_K@std@@@std@@@0@@Z 000000018003249d     collisioncodegen_CollisionGeometry.obj
 0002:000024a3       $ip2state$??$_Uninitialized_value_construct_n@V?$allocator@V?$vector@_KV?$allocator@_K@std@@@std@@@std@@@std@@YAPEAV?$vector@_KV?$allocator@_K@std@@@0@PEAV10@_KAEAV?$allocator@V?$vector@_KV?$allocator@_K@std@@@std@@@0@@Z 00000001800324a3     collisioncodegen_CollisionGeometry.obj
 0002:000024ac       $unwind$?dtor$0@?0???$_Uninitialized_value_construct_n@V?$allocator@V?$vector@_KV?$allocator@_K@std@@@std@@@std@@@std@@YAPEAV?$vector@_KV?$allocator@_K@std@@@0@PEAV10@_KAEAV?$allocator@V?$vector@_KV?$allocator@_K@std@@@std@@@0@@Z@4HA 00000001800324ac     collisioncodegen_CollisionGeometry.obj
 0002:000024b4       $unwind$??$destroy@V?$vector@_KV?$allocator@_K@std@@@std@@@?$_Default_allocator_traits@V?$allocator@V?$vector@_KV?$allocator@_K@std@@@std@@@std@@@std@@SAXAEAV?$allocator@V?$vector@_KV?$allocator@_K@std@@@std@@@1@QEAV?$vector@_KV?$allocator@_K@std@@@1@@Z 00000001800324b4     collisioncodegen_CollisionGeometry.obj
 0002:000024bc       $unwind$??$_Allocate@$0BA@U_Default_allocate_traits@std@@$0A@@std@@YAPEAX_K@Z 00000001800324bc     collisioncodegen_CollisionGeometry.obj
 0002:000024c4       $unwind$??$_Get_unwrapped@AEAV?$_Vector_iterator@V?$_Vector_val@U?$_Simple_types@N@std@@@std@@@std@@@std@@YA?A_TAEAV?$_Vector_iterator@V?$_Vector_val@U?$_Simple_types@N@std@@@std@@@0@@Z 00000001800324c4     collisioncodegen_CollisionGeometry.obj
 0002:000024cc       $unwind$??$_Pass_fn@U?$less@X@std@@@std@@YA?A_PAEAU?$less@X@0@@Z 00000001800324cc     collisioncodegen_CollisionGeometry.obj
 0002:000024d4       $unwind$??$_Max_element_unchecked@PEANU?$less@X@std@@@std@@YAPEANPEAN0U?$less@X@0@@Z 00000001800324d4     collisioncodegen_CollisionGeometry.obj
 0002:000024dc       $unwind$??$_Seek_wrapped@V?$_Vector_iterator@V?$_Vector_val@U?$_Simple_types@N@std@@@std@@@std@@PEAN@std@@YAXAEAV?$_Vector_iterator@V?$_Vector_val@U?$_Simple_types@N@std@@@std@@@0@$$QEAPEAN@Z 00000001800324dc     collisioncodegen_CollisionGeometry.obj
 0002:000024e4       $unwind$??$_Get_unwrapped@AEBV?$_Vector_iterator@V?$_Vector_val@U?$_Simple_types@_K@std@@@std@@@std@@@std@@YA?A_TAEBV?$_Vector_iterator@V?$_Vector_val@U?$_Simple_types@_K@std@@@std@@@0@@Z 00000001800324e4     collisioncodegen_CollisionGeometry.obj
 0002:000024ec       $unwind$??$_Sort_unchecked@PEA_KU?$less@X@std@@@std@@YAXPEA_K0_JU?$less@X@0@@Z 00000001800324ec     collisioncodegen_CollisionGeometry.obj
 0002:000024f4       $unwind$??$_Get_unwrapped@AEAV?$_Vector_iterator@V?$_Vector_val@U?$_Simple_types@_K@std@@@std@@@std@@@std@@YA?A_TAEAV?$_Vector_iterator@V?$_Vector_val@U?$_Simple_types@_K@std@@@std@@@0@@Z 00000001800324f4     collisioncodegen_CollisionGeometry.obj
 0002:000024fc       $unwind$??$?RAEA_KAEA_K@?$equal_to@X@std@@QEBA_NAEA_K0@Z 00000001800324fc     collisioncodegen_CollisionGeometry.obj
 0002:00002504       $unwind$??$_Seek_wrapped@V?$_Vector_iterator@V?$_Vector_val@U?$_Simple_types@_K@std@@@std@@@std@@AEAPEA_K@std@@YAXAEAV?$_Vector_iterator@V?$_Vector_val@U?$_Simple_types@_K@std@@@std@@@0@AEAPEA_K@Z 0000000180032504     collisioncodegen_CollisionGeometry.obj
 0002:0000250c       $unwind$??$_Seek_wrapped@V?$_Vector_iterator@V?$_Vector_val@U?$_Simple_types@_K@std@@@std@@@std@@AEBQEA_K@std@@YAXAEAV?$_Vector_iterator@V?$_Vector_val@U?$_Simple_types@_K@std@@@std@@@0@AEBQEA_K@Z 000000018003250c     collisioncodegen_CollisionGeometry.obj
 0002:00002514       $unwind$??$_Uninitialized_move@PEA_KV?$allocator@_K@std@@@std@@YAPEA_KQEA_K0PEA_KAEAV?$allocator@_K@0@@Z 0000000180032514     collisioncodegen_CollisionGeometry.obj
 0002:00002524       $cppxdata$??$_Uninitialized_move@PEA_KV?$allocator@_K@std@@@std@@YAPEA_KQEA_K0PEA_KAEAV?$allocator@_K@0@@Z 0000000180032524     collisioncodegen_CollisionGeometry.obj
 0002:0000252d       $stateUnwindMap$??$_Uninitialized_move@PEA_KV?$allocator@_K@std@@@std@@YAPEA_KQEA_K0PEA_KAEAV?$allocator@_K@0@@Z 000000018003252d     collisioncodegen_CollisionGeometry.obj
 0002:00002533       $ip2state$??$_Uninitialized_move@PEA_KV?$allocator@_K@std@@@std@@YAPEA_KQEA_K0PEA_KAEAV?$allocator@_K@0@@Z 0000000180032533     collisioncodegen_CollisionGeometry.obj
 0002:00002538       $unwind$?dtor$0@?0???$_Uninitialized_move@PEA_KV?$allocator@_K@std@@@std@@YAPEA_KQEA_K0PEA_KAEAV?$allocator@_K@0@@Z@4HA 0000000180032538     collisioncodegen_CollisionGeometry.obj
 0002:00002540       $unwind$??$_Zero_range@PEA_K@std@@YAPEA_KQEA_K0@Z 0000000180032540     collisioncodegen_CollisionGeometry.obj
 0002:00002548       $unwind$??1?$_Uninitialized_backout_al@V?$allocator@_K@std@@@std@@QEAA@XZ 0000000180032548     collisioncodegen_CollisionGeometry.obj
 0002:00002550       $unwind$??$_Emplace_back@$$V@?$_Uninitialized_backout_al@V?$allocator@_K@std@@@std@@QEAAXXZ 0000000180032550     collisioncodegen_CollisionGeometry.obj
 0002:00002558       $unwind$??$_Construct_in_place@_KAEB_K@std@@YAXAEA_KAEB_K@Z 0000000180032558     collisioncodegen_CollisionGeometry.obj
 0002:00002560       $unwind$??$construct@_KAEB_K@?$_Default_allocator_traits@V?$allocator@_K@std@@@std@@SAXAEAV?$allocator@_K@1@QEA_KAEB_K@Z 0000000180032560     collisioncodegen_CollisionGeometry.obj
 0002:00002568       $unwind$??$_Construct_in_place@NN@std@@YAXAEAN$$QEAN@Z 0000000180032568     collisioncodegen_CollisionGeometry.obj
 0002:00002570       $unwind$??$construct@NN@?$_Default_allocator_traits@V?$allocator@N@std@@@std@@SAXAEAV?$allocator@N@1@QEAN$$QEAN@Z 0000000180032570     collisioncodegen_CollisionGeometry.obj
 0002:00002578       $unwind$??$_Uninitialized_move@PEANV?$allocator@N@std@@@std@@YAPEANQEAN0PEANAEAV?$allocator@N@0@@Z 0000000180032578     collisioncodegen_CollisionGeometry.obj
 0002:00002588       $cppxdata$??$_Uninitialized_move@PEANV?$allocator@N@std@@@std@@YAPEANQEAN0PEANAEAV?$allocator@N@0@@Z 0000000180032588     collisioncodegen_CollisionGeometry.obj
 0002:00002591       $stateUnwindMap$??$_Uninitialized_move@PEANV?$allocator@N@std@@@std@@YAPEANQEAN0PEANAEAV?$allocator@N@0@@Z 0000000180032591     collisioncodegen_CollisionGeometry.obj
 0002:00002597       $ip2state$??$_Uninitialized_move@PEANV?$allocator@N@std@@@std@@YAPEANQEAN0PEANAEAV?$allocator@N@0@@Z 0000000180032597     collisioncodegen_CollisionGeometry.obj
 0002:0000259c       $unwind$?dtor$0@?0???$_Uninitialized_move@PEANV?$allocator@N@std@@@std@@YAPEANQEAN0PEANAEAV?$allocator@N@0@@Z@4HA 000000018003259c     collisioncodegen_CollisionGeometry.obj
 0002:000025a4       $unwind$??$_Uninitialized_move@PEAV?$vector@_KV?$allocator@_K@std@@@std@@V?$allocator@V?$vector@_KV?$allocator@_K@std@@@std@@@2@@std@@YAPEAV?$vector@_KV?$allocator@_K@std@@@0@QEAV10@0PEAV10@AEAV?$allocator@V?$vector@_KV?$allocator@_K@std@@@std@@@0@@Z 00000001800325a4     collisioncodegen_CollisionGeometry.obj
 0002:000025b4       $cppxdata$??$_Uninitialized_move@PEAV?$vector@_KV?$allocator@_K@std@@@std@@V?$allocator@V?$vector@_KV?$allocator@_K@std@@@std@@@2@@std@@YAPEAV?$vector@_KV?$allocator@_K@std@@@0@QEAV10@0PEAV10@AEAV?$allocator@V?$vector@_KV?$allocator@_K@std@@@std@@@0@@Z 00000001800325b4     collisioncodegen_CollisionGeometry.obj
 0002:000025bd       $stateUnwindMap$??$_Uninitialized_move@PEAV?$vector@_KV?$allocator@_K@std@@@std@@V?$allocator@V?$vector@_KV?$allocator@_K@std@@@std@@@2@@std@@YAPEAV?$vector@_KV?$allocator@_K@std@@@0@QEAV10@0PEAV10@AEAV?$allocator@V?$vector@_KV?$allocator@_K@std@@@std@@@0@@Z 00000001800325bd     collisioncodegen_CollisionGeometry.obj
 0002:000025c3       $ip2state$??$_Uninitialized_move@PEAV?$vector@_KV?$allocator@_K@std@@@std@@V?$allocator@V?$vector@_KV?$allocator@_K@std@@@std@@@2@@std@@YAPEAV?$vector@_KV?$allocator@_K@std@@@0@QEAV10@0PEAV10@AEAV?$allocator@V?$vector@_KV?$allocator@_K@std@@@std@@@0@@Z 00000001800325c3     collisioncodegen_CollisionGeometry.obj
 0002:000025cc       $unwind$?dtor$0@?0???$_Uninitialized_move@PEAV?$vector@_KV?$allocator@_K@std@@@std@@V?$allocator@V?$vector@_KV?$allocator@_K@std@@@std@@@2@@std@@YAPEAV?$vector@_KV?$allocator@_K@std@@@0@QEAV10@0PEAV10@AEAV?$allocator@V?$vector@_KV?$allocator@_K@std@@@std@@@0@@Z@4HA 00000001800325cc     collisioncodegen_CollisionGeometry.obj
 0002:000025d4       $unwind$??1?$_Uninitialized_backout_al@V?$allocator@V?$vector@_KV?$allocator@_K@std@@@std@@@std@@@std@@QEAA@XZ 00000001800325d4     collisioncodegen_CollisionGeometry.obj
 0002:000025dc       $unwind$??$_Emplace_back@$$V@?$_Uninitialized_backout_al@V?$allocator@V?$vector@_KV?$allocator@_K@std@@@std@@@std@@@std@@QEAAXXZ 00000001800325dc     collisioncodegen_CollisionGeometry.obj
 0002:000025e4       $unwind$??$_Allocate_manually_vector_aligned@U_Default_allocate_traits@std@@@std@@YAPEAX_K@Z 00000001800325e4     collisioncodegen_CollisionGeometry.obj
 0002:000025ec       $unwind$??$_Get_size_of_n@$07@std@@YA_K_K@Z 00000001800325ec     collisioncodegen_CollisionGeometry.obj
 0002:000025f4       $unwind$??$_Get_size_of_n@$0BI@@std@@YA_K_K@Z 00000001800325f4     collisioncodegen_CollisionGeometry.obj
 0002:000025fc       $unwind$??$?RAEANAEAN@?$less@X@std@@QEBA_NAEAN0@Z 00000001800325fc     collisioncodegen_CollisionGeometry.obj
 0002:00002604       $unwind$??$_Insertion_sort_unchecked@PEA_KU?$less@X@std@@@std@@YAPEA_KQEA_K0U?$less@X@0@@Z 0000000180032604     collisioncodegen_CollisionGeometry.obj
 0002:0000260c       $unwind$??$_Make_heap_unchecked@PEA_KU?$less@X@std@@@std@@YAXPEA_K0U?$less@X@0@@Z 000000018003260c     collisioncodegen_CollisionGeometry.obj
 0002:00002614       $unwind$??$_Sort_heap_unchecked@PEA_KU?$less@X@std@@@std@@YAXPEA_K0U?$less@X@0@@Z 0000000180032614     collisioncodegen_CollisionGeometry.obj
 0002:0000261c       $unwind$??$_Partition_by_median_guess_unchecked@PEA_KU?$less@X@std@@@std@@YA?AU?$pair@PEA_KPEA_K@0@PEA_K0U?$less@X@0@@Z 000000018003261c     collisioncodegen_CollisionGeometry.obj
 0002:00002624       $unwind$??$_Emplace_back@_K@?$_Uninitialized_backout_al@V?$allocator@_K@std@@@std@@QEAAX$$QEA_K@Z 0000000180032624     collisioncodegen_CollisionGeometry.obj
 0002:0000262c       $unwind$??$construct@_K$$V@?$_Default_allocator_traits@V?$allocator@_K@std@@@std@@SAXAEAV?$allocator@_K@1@QEA_K@Z 000000018003262c     collisioncodegen_CollisionGeometry.obj
 0002:00002634       $unwind$??$_Copy_memmove@PEANPEAN@std@@YAPEANPEAN00@Z 0000000180032634     collisioncodegen_CollisionGeometry.obj
 0002:0000263c       $unwind$??1?$_Uninitialized_backout_al@V?$allocator@N@std@@@std@@QEAA@XZ 000000018003263c     collisioncodegen_CollisionGeometry.obj
 0002:00002644       $unwind$??$_Emplace_back@N@?$_Uninitialized_backout_al@V?$allocator@N@std@@@std@@QEAAX$$QEAN@Z 0000000180032644     collisioncodegen_CollisionGeometry.obj
 0002:0000264c       $unwind$??$_Emplace_back@V?$vector@_KV?$allocator@_K@std@@@std@@@?$_Uninitialized_backout_al@V?$allocator@V?$vector@_KV?$allocator@_K@std@@@std@@@std@@@std@@QEAAX$$QEAV?$vector@_KV?$allocator@_K@std@@@1@@Z 000000018003264c     collisioncodegen_CollisionGeometry.obj
 0002:00002654       $unwind$??$construct@V?$vector@_KV?$allocator@_K@std@@@std@@$$V@?$_Default_allocator_traits@V?$allocator@V?$vector@_KV?$allocator@_K@std@@@std@@@std@@@std@@SAXAEAV?$allocator@V?$vector@_KV?$allocator@_K@std@@@std@@@1@QEAV?$vector@_KV?$allocator@_K@std@@@1@@Z 0000000180032654     collisioncodegen_CollisionGeometry.obj
 0002:0000265c       $unwind$??$?RAEA_KAEA_K@?$less@X@std@@QEBA_NAEA_K0@Z 000000018003265c     collisioncodegen_CollisionGeometry.obj
 0002:00002664       $unwind$??$_Move_backward_unchecked@PEA_KPEA_K@std@@YAPEA_KPEA_K00@Z 0000000180032664     collisioncodegen_CollisionGeometry.obj
 0002:0000266c       $unwind$??$_Pop_heap_hole_by_index@PEA_K_KU?$less@X@std@@@std@@YAXPEA_K_J1$$QEA_KU?$less@X@0@@Z 000000018003266c     collisioncodegen_CollisionGeometry.obj
 0002:00002674       $unwind$??$_Pop_heap_unchecked@PEA_KU?$less@X@std@@@std@@YAXPEA_K0U?$less@X@0@@Z 0000000180032674     collisioncodegen_CollisionGeometry.obj
 0002:0000267c       $unwind$??$_Guess_median_unchecked@PEA_KU?$less@X@std@@@std@@YAXPEA_K00U?$less@X@0@@Z 000000018003267c     collisioncodegen_CollisionGeometry.obj
 0002:00002684       $unwind$??$swap@_K$0A@@std@@YAXAEA_K0@Z 0000000180032684     collisioncodegen_CollisionGeometry.obj
 0002:0000268c       $unwind$??$?0AEAPEA_KAEAPEA_K$0A@@?$pair@PEA_KPEA_K@std@@QEAA@AEAPEA_K0@Z 000000018003268c     collisioncodegen_CollisionGeometry.obj
 0002:00002694       $unwind$??$construct@_K_K@?$_Default_allocator_traits@V?$allocator@_K@std@@@std@@SAXAEAV?$allocator@_K@1@QEA_K$$QEA_K@Z 0000000180032694     collisioncodegen_CollisionGeometry.obj
 0002:0000269c       $unwind$??$construct@V?$vector@_KV?$allocator@_K@std@@@std@@V12@@?$_Default_allocator_traits@V?$allocator@V?$vector@_KV?$allocator@_K@std@@@std@@@std@@@std@@SAXAEAV?$allocator@V?$vector@_KV?$allocator@_K@std@@@std@@@1@QEAV?$vector@_KV?$allocator@_K@std@@@1@$$QEAV31@@Z 000000018003269c     collisioncodegen_CollisionGeometry.obj
 0002:000026a4       $unwind$??$?0$$V@?$_Compressed_pair@V?$allocator@_K@std@@V?$_Vector_val@U?$_Simple_types@_K@std@@@2@$00@std@@QEAA@U_Zero_then_variadic_args_t@1@@Z 00000001800326a4     collisioncodegen_CollisionGeometry.obj
 0002:000026ac       $unwind$??$_Copy_backward_memmove@PEA_KPEA_K@std@@YAPEA_KPEA_K00@Z 00000001800326ac     collisioncodegen_CollisionGeometry.obj
 0002:000026b4       $unwind$??$_Push_heap_by_index@PEA_K_KU?$less@X@std@@@std@@YAXPEA_K_J1$$QEA_KU?$less@X@0@@Z 00000001800326b4     collisioncodegen_CollisionGeometry.obj
 0002:000026bc       $unwind$??$_Pop_heap_hole_unchecked@PEA_K_KU?$less@X@std@@@std@@YAXPEA_K00$$QEA_KU?$less@X@0@@Z 00000001800326bc     collisioncodegen_CollisionGeometry.obj
 0002:000026c4       $unwind$??$_Med3_unchecked@PEA_KU?$less@X@std@@@std@@YAXPEA_K00U?$less@X@0@@Z 00000001800326c4     collisioncodegen_CollisionGeometry.obj
 0002:000026cc       $unwind$??$exchange@PEA_K$$T@std@@YAPEA_KAEAPEA_K$$QEA$$T@Z 00000001800326cc     collisioncodegen_CollisionGeometry.obj
 0002:000026d4       $unwind$??$?0V?$allocator@_K@std@@PEA_KPEA_KPEA_K@?$_Compressed_pair@V?$allocator@_K@std@@V?$_Vector_val@U?$_Simple_types@_K@std@@@2@$00@std@@QEAA@U_One_then_variadic_args_t@1@$$QEAV?$allocator@_K@1@$$QEAPEA_K22@Z 00000001800326d4     collisioncodegen_CollisionGeometry.obj
 0002:000026dc       $unwind$?copy@?$_Char_traits@DH@std@@SAPEADQEADQEBD_K@Z 00000001800326dc     collisioncodegen_api.obj
 0002:000026ec       $cppxdata$?copy@?$_Char_traits@DH@std@@SAPEADQEADQEBD_K@Z 00000001800326ec     collisioncodegen_api.obj
 0002:000026f1       $ip2state$?copy@?$_Char_traits@DH@std@@SAPEADQEADQEBD_K@Z 00000001800326f1     collisioncodegen_api.obj
 0002:000026f4       $unwind$?_Xlen_string@std@@YAXXZ 00000001800326f4     collisioncodegen_api.obj
 0002:000026fc       $unwind$?deallocate@?$allocator@D@std@@QEAAXQEAD_K@Z 00000001800326fc     collisioncodegen_api.obj
 0002:00002704       $unwind$?allocate@?$allocator@D@std@@QEAAPEAD_K@Z 0000000180032704     collisioncodegen_api.obj
 0002:0000270c       $unwind$??0?$_String_val@U?$_Simple_types@D@std@@@std@@QEAA@XZ 000000018003270c     collisioncodegen_api.obj
 0002:00002714       $unwind$?_Myptr@?$_String_val@U?$_Simple_types@D@std@@@std@@QEBAPEBDXZ 0000000180032714     collisioncodegen_api.obj
 0002:0000271c       $unwind$?_Large_string_engaged@?$_String_val@U?$_Simple_types@D@std@@@std@@QEBA_NXZ 000000018003271c     collisioncodegen_api.obj
 0002:00002724       $unwind$??0_Bxty@?$_String_val@U?$_Simple_types@D@std@@@std@@QEAA@XZ 0000000180032724     collisioncodegen_api.obj
 0002:0000272c       $unwind$??1?$_String_val@U?$_Simple_types@D@std@@@std@@QEAA@XZ 000000018003272c     collisioncodegen_api.obj
 0002:00002734       $unwind$??0?$basic_string@DU?$char_traits@D@std@@V?$allocator@D@2@@std@@QEAA@QEBD@Z 0000000180032734     collisioncodegen_api.obj
 0002:00002744       $cppxdata$??0?$basic_string@DU?$char_traits@D@std@@V?$allocator@D@2@@std@@QEAA@QEBD@Z 0000000180032744     collisioncodegen_api.obj
 0002:0000274d       $stateUnwindMap$??0?$basic_string@DU?$char_traits@D@std@@V?$allocator@D@2@@std@@QEAA@QEBD@Z 000000018003274d     collisioncodegen_api.obj
 0002:00002753       $ip2state$??0?$basic_string@DU?$char_traits@D@std@@V?$allocator@D@2@@std@@QEAA@QEBD@Z 0000000180032753     collisioncodegen_api.obj
 0002:0000275c       $unwind$?dtor$0@?0???0?$basic_string@DU?$char_traits@D@std@@V?$allocator@D@2@@std@@QEAA@QEBD@Z@4HA 000000018003275c     collisioncodegen_api.obj
 0002:00002764       $unwind$??1?$basic_string@DU?$char_traits@D@std@@V?$allocator@D@2@@std@@QEAA@XZ 0000000180032764     collisioncodegen_api.obj
 0002:0000276c       $unwind$?c_str@?$basic_string@DU?$char_traits@D@std@@V?$allocator@D@2@@std@@QEBAPEBDXZ 000000018003276c     collisioncodegen_api.obj
 0002:00002774       $unwind$?max_size@?$basic_string@DU?$char_traits@D@std@@V?$allocator@D@2@@std@@QEBA_KXZ 0000000180032774     collisioncodegen_api.obj
 0002:0000277c       $unwind$?_Calculate_growth@?$basic_string@DU?$char_traits@D@std@@V?$allocator@D@2@@std@@CA_K_K00@Z 000000018003277c     collisioncodegen_api.obj
 0002:00002784       $unwind$?_Calculate_growth@?$basic_string@DU?$char_traits@D@std@@V?$allocator@D@2@@std@@AEBA_K_K@Z 0000000180032784     collisioncodegen_api.obj
 0002:0000278c       $unwind$?_Tidy_deallocate@?$basic_string@DU?$char_traits@D@std@@V?$allocator@D@2@@std@@AEAAXXZ 000000018003278c     collisioncodegen_api.obj
 0002:0000279c       $cppxdata$?_Tidy_deallocate@?$basic_string@DU?$char_traits@D@std@@V?$allocator@D@2@@std@@AEAAXXZ 000000018003279c     collisioncodegen_api.obj
 0002:000027a1       $ip2state$?_Tidy_deallocate@?$basic_string@DU?$char_traits@D@std@@V?$allocator@D@2@@std@@AEAAXXZ 00000001800327a1     collisioncodegen_api.obj
 0002:000027a4       $unwind$?_Getal@?$basic_string@DU?$char_traits@D@std@@V?$allocator@D@2@@std@@AEAAAEAV?$allocator@D@2@XZ 00000001800327a4     collisioncodegen_api.obj
 0002:000027ac       $unwind$?_Getal@?$basic_string@DU?$char_traits@D@std@@V?$allocator@D@2@@std@@AEBAAEBV?$allocator@D@2@XZ 00000001800327ac     collisioncodegen_api.obj
 0002:000027b4       $unwind$??1?$_Compressed_pair@V?$allocator@D@std@@V?$_String_val@U?$_Simple_types@D@std@@@2@$00@std@@QEAA@XZ 00000001800327b4     collisioncodegen_api.obj
 0002:000027bc       $unwind$??0CollisionGeometry@shared_robotics@@QEAA@NNN@Z 00000001800327bc     collisioncodegen_api.obj
 0002:000027cc       $cppxdata$??0CollisionGeometry@shared_robotics@@QEAA@NNN@Z 00000001800327cc     collisioncodegen_api.obj
 0002:000027d5       $stateUnwindMap$??0CollisionGeometry@shared_robotics@@QEAA@NNN@Z 00000001800327d5     collisioncodegen_api.obj
 0002:000027e5       $ip2state$??0CollisionGeometry@shared_robotics@@QEAA@NNN@Z 00000001800327e5     collisioncodegen_api.obj
 0002:000027f0       $unwind$?dtor$0@?0???0CollisionGeometry@shared_robotics@@QEAA@NNN@Z@4HA 00000001800327f0     collisioncodegen_api.obj
 0002:000027f8       $unwind$?dtor$1@?0???0CollisionGeometry@shared_robotics@@QEAA@NNN@Z@4HA 00000001800327f8     collisioncodegen_api.obj
 0002:00002800       $unwind$?dtor$2@?0???0CollisionGeometry@shared_robotics@@QEAA@NNN@Z@4HA 0000000180032800     collisioncodegen_api.obj
 0002:00002808       $unwind$??0CollisionGeometry@shared_robotics@@QEAA@N@Z 0000000180032808     collisioncodegen_api.obj
 0002:00002818       $cppxdata$??0CollisionGeometry@shared_robotics@@QEAA@N@Z 0000000180032818     collisioncodegen_api.obj
 0002:00002821       $stateUnwindMap$??0CollisionGeometry@shared_robotics@@QEAA@N@Z 0000000180032821     collisioncodegen_api.obj
 0002:00002831       $ip2state$??0CollisionGeometry@shared_robotics@@QEAA@N@Z 0000000180032831     collisioncodegen_api.obj
 0002:0000283c       $unwind$?dtor$0@?0???0CollisionGeometry@shared_robotics@@QEAA@N@Z@4HA 000000018003283c     collisioncodegen_api.obj
 0002:00002844       $unwind$?dtor$1@?0???0CollisionGeometry@shared_robotics@@QEAA@N@Z@4HA 0000000180032844     collisioncodegen_api.obj
 0002:0000284c       $unwind$?dtor$2@?0???0CollisionGeometry@shared_robotics@@QEAA@N@Z@4HA 000000018003284c     collisioncodegen_api.obj
 0002:00002854       $unwind$??0CollisionGeometry@shared_robotics@@QEAA@NN@Z 0000000180032854     collisioncodegen_api.obj
 0002:00002864       $cppxdata$??0CollisionGeometry@shared_robotics@@QEAA@NN@Z 0000000180032864     collisioncodegen_api.obj
 0002:0000286d       $stateUnwindMap$??0CollisionGeometry@shared_robotics@@QEAA@NN@Z 000000018003286d     collisioncodegen_api.obj
 0002:0000287d       $ip2state$??0CollisionGeometry@shared_robotics@@QEAA@NN@Z 000000018003287d     collisioncodegen_api.obj
 0002:00002888       $unwind$?dtor$0@?0???0CollisionGeometry@shared_robotics@@QEAA@NN@Z@4HA 0000000180032888     collisioncodegen_api.obj
 0002:00002890       $unwind$?dtor$1@?0???0CollisionGeometry@shared_robotics@@QEAA@NN@Z@4HA 0000000180032890     collisioncodegen_api.obj
 0002:00002898       $unwind$?dtor$2@?0???0CollisionGeometry@shared_robotics@@QEAA@NN@Z@4HA 0000000180032898     collisioncodegen_api.obj
 0002:000028a0       $unwind$??0CollisionGeometry@shared_robotics@@QEAA@PEANH_N@Z 00000001800328a0     collisioncodegen_api.obj
 0002:000028b4       $cppxdata$??0CollisionGeometry@shared_robotics@@QEAA@PEANH_N@Z 00000001800328b4     collisioncodegen_api.obj
 0002:000028bd       $stateUnwindMap$??0CollisionGeometry@shared_robotics@@QEAA@PEANH_N@Z 00000001800328bd     collisioncodegen_api.obj
 0002:000028cd       $ip2state$??0CollisionGeometry@shared_robotics@@QEAA@PEANH_N@Z 00000001800328cd     collisioncodegen_api.obj
 0002:000028dc       $unwind$?dtor$0@?0???0CollisionGeometry@shared_robotics@@QEAA@PEANH_N@Z@4HA 00000001800328dc     collisioncodegen_api.obj
 0002:000028e4       $unwind$?dtor$1@?0???0CollisionGeometry@shared_robotics@@QEAA@PEANH_N@Z@4HA 00000001800328e4     collisioncodegen_api.obj
 0002:000028ec       $unwind$?dtor$2@?0???0CollisionGeometry@shared_robotics@@QEAA@PEANH_N@Z@4HA 00000001800328ec     collisioncodegen_api.obj
 0002:000028f4       $unwind$?getType@CollisionGeometry@shared_robotics@@QEBA?AV?$basic_string@DU?$char_traits@D@std@@V?$allocator@D@2@@std@@XZ 00000001800328f4     collisioncodegen_api.obj
 0002:000028fc       $unwind$?allocate@?$allocator@U_ccd_vec3_t@@@std@@QEAAPEAU_ccd_vec3_t@@_K@Z 00000001800328fc     collisioncodegen_api.obj
 0002:00002904       $unwind$??0?$vector@U_ccd_vec3_t@@V?$allocator@U_ccd_vec3_t@@@std@@@std@@QEAA@XZ 0000000180032904     collisioncodegen_api.obj
 0002:0000290c       $unwind$??0?$vector@U_ccd_vec3_t@@V?$allocator@U_ccd_vec3_t@@@std@@@std@@QEAA@AEBV01@@Z 000000018003290c     collisioncodegen_api.obj
 0002:00002914       $unwind$?push_back@?$vector@U_ccd_vec3_t@@V?$allocator@U_ccd_vec3_t@@@std@@@std@@QEAAXAEBU_ccd_vec3_t@@@Z 0000000180032914     collisioncodegen_api.obj
 0002:0000291c       $unwind$?size@?$vector@U_ccd_vec3_t@@V?$allocator@U_ccd_vec3_t@@@std@@@std@@QEBA_KXZ 000000018003291c     collisioncodegen_api.obj
 0002:00002924       $unwind$?max_size@?$vector@U_ccd_vec3_t@@V?$allocator@U_ccd_vec3_t@@@std@@@std@@QEBA_KXZ 0000000180032924     collisioncodegen_api.obj
 0002:0000292c       $unwind$?capacity@?$vector@U_ccd_vec3_t@@V?$allocator@U_ccd_vec3_t@@@std@@@std@@QEBA_KXZ 000000018003292c     collisioncodegen_api.obj
 0002:00002934       $unwind$??A?$vector@U_ccd_vec3_t@@V?$allocator@U_ccd_vec3_t@@@std@@@std@@QEAAAEAU_ccd_vec3_t@@_K@Z 0000000180032934     collisioncodegen_api.obj
 0002:0000293c       $unwind$?_Calculate_growth@?$vector@U_ccd_vec3_t@@V?$allocator@U_ccd_vec3_t@@@std@@@std@@AEBA_K_K@Z 000000018003293c     collisioncodegen_api.obj
 0002:00002944       $unwind$?_Buy_raw@?$vector@U_ccd_vec3_t@@V?$allocator@U_ccd_vec3_t@@@std@@@std@@AEAAX_K@Z 0000000180032944     collisioncodegen_api.obj
 0002:0000294c       $unwind$?_Buy_nonzero@?$vector@U_ccd_vec3_t@@V?$allocator@U_ccd_vec3_t@@@std@@@std@@AEAAX_K@Z 000000018003294c     collisioncodegen_api.obj
 0002:00002954       $unwind$?_Change_array@?$vector@U_ccd_vec3_t@@V?$allocator@U_ccd_vec3_t@@@std@@@std@@AEAAXQEAU_ccd_vec3_t@@_K1@Z 0000000180032954     collisioncodegen_api.obj
 0002:0000295c       $unwind$?_Xlength@?$vector@U_ccd_vec3_t@@V?$allocator@U_ccd_vec3_t@@@std@@@std@@CAXXZ 000000018003295c     collisioncodegen_api.obj
 0002:00002964       $unwind$?_Getal@?$vector@U_ccd_vec3_t@@V?$allocator@U_ccd_vec3_t@@@std@@@std@@AEBAAEBV?$allocator@U_ccd_vec3_t@@@2@XZ 0000000180032964     collisioncodegen_api.obj
 0002:0000296c       $unwind$?allocate@?$allocator@U_idx_vec3_t@shared_robotics@@@std@@QEAAPEAU_idx_vec3_t@shared_robotics@@_K@Z 000000018003296c     collisioncodegen_api.obj
 0002:00002974       $unwind$??0?$vector@U_idx_vec3_t@shared_robotics@@V?$allocator@U_idx_vec3_t@shared_robotics@@@std@@@std@@QEAA@XZ 0000000180032974     collisioncodegen_api.obj
 0002:0000297c       $unwind$??0?$vector@U_idx_vec3_t@shared_robotics@@V?$allocator@U_idx_vec3_t@shared_robotics@@@std@@@std@@QEAA@AEBV01@@Z 000000018003297c     collisioncodegen_api.obj
 0002:00002984       $unwind$?max_size@?$vector@U_idx_vec3_t@shared_robotics@@V?$allocator@U_idx_vec3_t@shared_robotics@@@std@@@std@@QEBA_KXZ 0000000180032984     collisioncodegen_api.obj
 0002:0000298c       $unwind$?_Buy_raw@?$vector@U_idx_vec3_t@shared_robotics@@V?$allocator@U_idx_vec3_t@shared_robotics@@@std@@@std@@AEAAX_K@Z 000000018003298c     collisioncodegen_api.obj
 0002:00002994       $unwind$?_Buy_nonzero@?$vector@U_idx_vec3_t@shared_robotics@@V?$allocator@U_idx_vec3_t@shared_robotics@@@std@@@std@@AEAAX_K@Z 0000000180032994     collisioncodegen_api.obj
 0002:0000299c       $unwind$?_Xlength@?$vector@U_idx_vec3_t@shared_robotics@@V?$allocator@U_idx_vec3_t@shared_robotics@@@std@@@std@@CAXXZ 000000018003299c     collisioncodegen_api.obj
 0002:000029a4       $unwind$?_Getal@?$vector@U_idx_vec3_t@shared_robotics@@V?$allocator@U_idx_vec3_t@shared_robotics@@@std@@@std@@AEBAAEBV?$allocator@U_idx_vec3_t@shared_robotics@@@2@XZ 00000001800329a4     collisioncodegen_api.obj
 0002:000029ac       $unwind$??0?$vector@V?$vector@_KV?$allocator@_K@std@@@std@@V?$allocator@V?$vector@_KV?$allocator@_K@std@@@std@@@2@@std@@QEAA@XZ 00000001800329ac     collisioncodegen_api.obj
 0002:000029b4       $unwind$??0?$vector@V?$vector@_KV?$allocator@_K@std@@@std@@V?$allocator@V?$vector@_KV?$allocator@_K@std@@@std@@@2@@std@@QEAA@AEBV01@@Z 00000001800329b4     collisioncodegen_api.obj
 0002:000029bc       $unwind$?_Buy_raw@?$vector@V?$vector@_KV?$allocator@_K@std@@@std@@V?$allocator@V?$vector@_KV?$allocator@_K@std@@@std@@@2@@std@@AEAAX_K@Z 00000001800329bc     collisioncodegen_api.obj
 0002:000029c4       $unwind$?_Buy_nonzero@?$vector@V?$vector@_KV?$allocator@_K@std@@@std@@V?$allocator@V?$vector@_KV?$allocator@_K@std@@@std@@@2@@std@@AEAAX_K@Z 00000001800329c4     collisioncodegen_api.obj
 0002:000029cc       $unwind$?initializePositionAndOrientation@CollisionGeometry@shared_robotics@@AEAAXXZ 00000001800329cc     collisioncodegen_api.obj
 0002:000029d4       $unwind$??0CollisionGeometry@shared_robotics@@QEAA@AEBV01@@Z 00000001800329d4     collisioncodegen_api.obj
 0002:000029e8       $cppxdata$??0CollisionGeometry@shared_robotics@@QEAA@AEBV01@@Z 00000001800329e8     collisioncodegen_api.obj
 0002:000029f1       $stateUnwindMap$??0CollisionGeometry@shared_robotics@@QEAA@AEBV01@@Z 00000001800329f1     collisioncodegen_api.obj
 0002:000029fc       $ip2state$??0CollisionGeometry@shared_robotics@@QEAA@AEBV01@@Z 00000001800329fc     collisioncodegen_api.obj
 0002:00002a08       $unwind$?dtor$0@?0???0CollisionGeometry@shared_robotics@@QEAA@AEBV01@@Z@4HA 0000000180032a08     collisioncodegen_api.obj
 0002:00002a10       $unwind$?dtor$1@?0???0CollisionGeometry@shared_robotics@@QEAA@AEBV01@@Z@4HA 0000000180032a10     collisioncodegen_api.obj
 0002:00002a18       $unwind$collisioncodegen_makeBox 0000000180032a18     collisioncodegen_api.obj
 0002:00002a28       $cppxdata$collisioncodegen_makeBox 0000000180032a28     collisioncodegen_api.obj
 0002:00002a31       $stateUnwindMap$collisioncodegen_makeBox 0000000180032a31     collisioncodegen_api.obj
 0002:00002a37       $ip2state$collisioncodegen_makeBox 0000000180032a37     collisioncodegen_api.obj
 0002:00002a40       $unwind$collisioncodegen_makeBox$dtor$0 0000000180032a40     collisioncodegen_api.obj
 0002:00002a48       $unwind$collisioncodegen_makeSphere 0000000180032a48     collisioncodegen_api.obj
 0002:00002a58       $cppxdata$collisioncodegen_makeSphere 0000000180032a58     collisioncodegen_api.obj
 0002:00002a61       $stateUnwindMap$collisioncodegen_makeSphere 0000000180032a61     collisioncodegen_api.obj
 0002:00002a67       $ip2state$collisioncodegen_makeSphere 0000000180032a67     collisioncodegen_api.obj
 0002:00002a70       $unwind$collisioncodegen_makeSphere$dtor$0 0000000180032a70     collisioncodegen_api.obj
 0002:00002a78       $unwind$collisioncodegen_makeCylinder 0000000180032a78     collisioncodegen_api.obj
 0002:00002a88       $cppxdata$collisioncodegen_makeCylinder 0000000180032a88     collisioncodegen_api.obj
 0002:00002a91       $stateUnwindMap$collisioncodegen_makeCylinder 0000000180032a91     collisioncodegen_api.obj
 0002:00002a97       $ip2state$collisioncodegen_makeCylinder 0000000180032a97     collisioncodegen_api.obj
 0002:00002aa0       $unwind$collisioncodegen_makeCylinder$dtor$0 0000000180032aa0     collisioncodegen_api.obj
 0002:00002aa8       $unwind$collisioncodegen_makeCapsule 0000000180032aa8     collisioncodegen_api.obj
 0002:00002ab8       $cppxdata$collisioncodegen_makeCapsule 0000000180032ab8     collisioncodegen_api.obj
 0002:00002ac1       $stateUnwindMap$collisioncodegen_makeCapsule 0000000180032ac1     collisioncodegen_api.obj
 0002:00002ac7       $ip2state$collisioncodegen_makeCapsule 0000000180032ac7     collisioncodegen_api.obj
 0002:00002ad0       $unwind$collisioncodegen_makeCapsule$dtor$0 0000000180032ad0     collisioncodegen_api.obj
 0002:00002ad8       $unwind$collisioncodegen_makeMesh 0000000180032ad8     collisioncodegen_api.obj
 0002:00002ae8       $cppxdata$collisioncodegen_makeMesh 0000000180032ae8     collisioncodegen_api.obj
 0002:00002af1       $stateUnwindMap$collisioncodegen_makeMesh 0000000180032af1     collisioncodegen_api.obj
 0002:00002af7       $ip2state$collisioncodegen_makeMesh 0000000180032af7     collisioncodegen_api.obj
 0002:00002b00       $unwind$collisioncodegen_makeMesh$dtor$0 0000000180032b00     collisioncodegen_api.obj
 0002:00002b08       $unwind$collisioncodegen_intersect 0000000180032b08     collisioncodegen_api.obj
 0002:00002b10       $unwind$collisioncodegen_destructGeometry 0000000180032b10     collisioncodegen_api.obj
 0002:00002b18       $unwind$collisioncodegen_copyGeometry 0000000180032b18     collisioncodegen_api.obj
 0002:00002b28       $cppxdata$collisioncodegen_copyGeometry 0000000180032b28     collisioncodegen_api.obj
 0002:00002b31       $stateUnwindMap$collisioncodegen_copyGeometry 0000000180032b31     collisioncodegen_api.obj
 0002:00002b37       $ip2state$collisioncodegen_copyGeometry 0000000180032b37     collisioncodegen_api.obj
 0002:00002b40       $unwind$collisioncodegen_copyGeometry$dtor$0 0000000180032b40     collisioncodegen_api.obj
 0002:00002b48       $unwind$collisioncodegen_getVertices 0000000180032b48     collisioncodegen_api.obj
 0002:00002b50       $unwind$collisioncodegen_getNumVertices 0000000180032b50     collisioncodegen_api.obj
 0002:00002b58       $unwind$collisioncodegen_getX 0000000180032b58     collisioncodegen_api.obj
 0002:00002b60       $unwind$collisioncodegen_getY 0000000180032b60     collisioncodegen_api.obj
 0002:00002b68       $unwind$collisioncodegen_getZ 0000000180032b68     collisioncodegen_api.obj
 0002:00002b70       $unwind$collisioncodegen_getRadius 0000000180032b70     collisioncodegen_api.obj
 0002:00002b78       $unwind$collisioncodegen_getLength 0000000180032b78     collisioncodegen_api.obj
 0002:00002b80       $unwind$collisioncodegen_getType 0000000180032b80     collisioncodegen_api.obj
 0002:00002b94       $cppxdata$collisioncodegen_getType 0000000180032b94     collisioncodegen_api.obj
 0002:00002b9d       $stateUnwindMap$collisioncodegen_getType 0000000180032b9d     collisioncodegen_api.obj
 0002:00002ba3       $ip2state$collisioncodegen_getType 0000000180032ba3     collisioncodegen_api.obj
 0002:00002bac       $unwind$collisioncodegen_getType$dtor$0 0000000180032bac     collisioncodegen_api.obj
 0002:00002bb4       $unwind$??$?0V?$allocator@V?$vector@_KV?$allocator@_K@std@@@std@@@std@@$$V@?$_Compressed_pair@V?$allocator@V?$vector@_KV?$allocator@_K@std@@@std@@@std@@V?$_Vector_val@U?$_Simple_types@V?$vector@_KV?$allocator@_K@std@@@std@@@std@@@2@$00@std@@QEAA@U_One_then_variadic_args_t@1@$$QEAV?$allocator@V?$vector@_KV?$allocator@_K@std@@@std@@@1@@Z 0000000180032bb4     collisioncodegen_api.obj
 0002:00002bbc       $unwind$??0?$vector@_KV?$allocator@_K@std@@@std@@QEAA@AEBV01@@Z 0000000180032bbc     collisioncodegen_api.obj
 0002:00002bc4       $unwind$?_Buy_raw@?$vector@_KV?$allocator@_K@std@@@std@@AEAAX_K@Z 0000000180032bc4     collisioncodegen_api.obj
 0002:00002bcc       $unwind$?_Buy_nonzero@?$vector@_KV?$allocator@_K@std@@@std@@AEAAX_K@Z 0000000180032bcc     collisioncodegen_api.obj
 0002:00002bd4       $unwind$??$_Construct_n@AEBQEAV?$vector@_KV?$allocator@_K@std@@@std@@AEBQEAV12@@?$vector@V?$vector@_KV?$allocator@_K@std@@@std@@V?$allocator@V?$vector@_KV?$allocator@_K@std@@@std@@@2@@std@@AEAAX_KAEBQEAV?$vector@_KV?$allocator@_K@std@@@1@1@Z 0000000180032bd4     collisioncodegen_api.obj
 0002:00002be4       $cppxdata$??$_Construct_n@AEBQEAV?$vector@_KV?$allocator@_K@std@@@std@@AEBQEAV12@@?$vector@V?$vector@_KV?$allocator@_K@std@@@std@@V?$allocator@V?$vector@_KV?$allocator@_K@std@@@std@@@2@@std@@AEAAX_KAEBQEAV?$vector@_KV?$allocator@_K@std@@@1@1@Z 0000000180032be4     collisioncodegen_api.obj
 0002:00002bed       $stateUnwindMap$??$_Construct_n@AEBQEAV?$vector@_KV?$allocator@_K@std@@@std@@AEBQEAV12@@?$vector@V?$vector@_KV?$allocator@_K@std@@@std@@V?$allocator@V?$vector@_KV?$allocator@_K@std@@@std@@@2@@std@@AEAAX_KAEBQEAV?$vector@_KV?$allocator@_K@std@@@1@1@Z 0000000180032bed     collisioncodegen_api.obj
 0002:00002bf3       $ip2state$??$_Construct_n@AEBQEAV?$vector@_KV?$allocator@_K@std@@@std@@AEBQEAV12@@?$vector@V?$vector@_KV?$allocator@_K@std@@@std@@V?$allocator@V?$vector@_KV?$allocator@_K@std@@@std@@@2@@std@@AEAAX_KAEBQEAV?$vector@_KV?$allocator@_K@std@@@1@1@Z 0000000180032bf3     collisioncodegen_api.obj
 0002:00002bfc       $unwind$?dtor$0@?0???$_Construct_n@AEBQEAV?$vector@_KV?$allocator@_K@std@@@std@@AEBQEAV12@@?$vector@V?$vector@_KV?$allocator@_K@std@@@std@@V?$allocator@V?$vector@_KV?$allocator@_K@std@@@std@@@2@@std@@AEAAX_KAEBQEAV?$vector@_KV?$allocator@_K@std@@@1@1@Z@4HA 0000000180032bfc     collisioncodegen_api.obj
 0002:00002c04       $unwind$??$?0$$V@?$_Compressed_pair@V?$allocator@V?$vector@_KV?$allocator@_K@std@@@std@@@std@@V?$_Vector_val@U?$_Simple_types@V?$vector@_KV?$allocator@_K@std@@@std@@@std@@@2@$00@std@@QEAA@U_Zero_then_variadic_args_t@1@@Z 0000000180032c04     collisioncodegen_api.obj
 0002:00002c0c       $unwind$??$?0V?$allocator@U_idx_vec3_t@shared_robotics@@@std@@$$V@?$_Compressed_pair@V?$allocator@U_idx_vec3_t@shared_robotics@@@std@@V?$_Vector_val@U?$_Simple_types@U_idx_vec3_t@shared_robotics@@@std@@@2@$00@std@@QEAA@U_One_then_variadic_args_t@1@$$QEAV?$allocator@U_idx_vec3_t@shared_robotics@@@1@@Z 0000000180032c0c     collisioncodegen_api.obj
 0002:00002c14       $unwind$??$_Construct_n@AEBQEAU_idx_vec3_t@shared_robotics@@AEBQEAU12@@?$vector@U_idx_vec3_t@shared_robotics@@V?$allocator@U_idx_vec3_t@shared_robotics@@@std@@@std@@AEAAX_KAEBQEAU_idx_vec3_t@shared_robotics@@1@Z 0000000180032c14     collisioncodegen_api.obj
 0002:00002c24       $cppxdata$??$_Construct_n@AEBQEAU_idx_vec3_t@shared_robotics@@AEBQEAU12@@?$vector@U_idx_vec3_t@shared_robotics@@V?$allocator@U_idx_vec3_t@shared_robotics@@@std@@@std@@AEAAX_KAEBQEAU_idx_vec3_t@shared_robotics@@1@Z 0000000180032c24     collisioncodegen_api.obj
 0002:00002c2d       $stateUnwindMap$??$_Construct_n@AEBQEAU_idx_vec3_t@shared_robotics@@AEBQEAU12@@?$vector@U_idx_vec3_t@shared_robotics@@V?$allocator@U_idx_vec3_t@shared_robotics@@@std@@@std@@AEAAX_KAEBQEAU_idx_vec3_t@shared_robotics@@1@Z 0000000180032c2d     collisioncodegen_api.obj
 0002:00002c33       $ip2state$??$_Construct_n@AEBQEAU_idx_vec3_t@shared_robotics@@AEBQEAU12@@?$vector@U_idx_vec3_t@shared_robotics@@V?$allocator@U_idx_vec3_t@shared_robotics@@@std@@@std@@AEAAX_KAEBQEAU_idx_vec3_t@shared_robotics@@1@Z 0000000180032c33     collisioncodegen_api.obj
 0002:00002c3c       $unwind$?dtor$0@?0???$_Construct_n@AEBQEAU_idx_vec3_t@shared_robotics@@AEBQEAU12@@?$vector@U_idx_vec3_t@shared_robotics@@V?$allocator@U_idx_vec3_t@shared_robotics@@@std@@@std@@AEAAX_KAEBQEAU_idx_vec3_t@shared_robotics@@1@Z@4HA 0000000180032c3c     collisioncodegen_api.obj
 0002:00002c44       $unwind$??$?0$$V@?$_Compressed_pair@V?$allocator@U_idx_vec3_t@shared_robotics@@@std@@V?$_Vector_val@U?$_Simple_types@U_idx_vec3_t@shared_robotics@@@std@@@2@$00@std@@QEAA@U_Zero_then_variadic_args_t@1@@Z 0000000180032c44     collisioncodegen_api.obj
 0002:00002c4c       $unwind$??$_Emplace_one_at_back@AEBU_ccd_vec3_t@@@?$vector@U_ccd_vec3_t@@V?$allocator@U_ccd_vec3_t@@@std@@@std@@AEAAAEAU_ccd_vec3_t@@AEBU2@@Z 0000000180032c4c     collisioncodegen_api.obj
 0002:00002c54       $unwind$??$?0V?$allocator@U_ccd_vec3_t@@@std@@$$V@?$_Compressed_pair@V?$allocator@U_ccd_vec3_t@@@std@@V?$_Vector_val@U?$_Simple_types@U_ccd_vec3_t@@@std@@@2@$00@std@@QEAA@U_One_then_variadic_args_t@1@$$QEAV?$allocator@U_ccd_vec3_t@@@1@@Z 0000000180032c54     collisioncodegen_api.obj
 0002:00002c5c       $unwind$??$_Construct_n@AEBQEAU_ccd_vec3_t@@AEBQEAU1@@?$vector@U_ccd_vec3_t@@V?$allocator@U_ccd_vec3_t@@@std@@@std@@AEAAX_KAEBQEAU_ccd_vec3_t@@1@Z 0000000180032c5c     collisioncodegen_api.obj
 0002:00002c6c       $cppxdata$??$_Construct_n@AEBQEAU_ccd_vec3_t@@AEBQEAU1@@?$vector@U_ccd_vec3_t@@V?$allocator@U_ccd_vec3_t@@@std@@@std@@AEAAX_KAEBQEAU_ccd_vec3_t@@1@Z 0000000180032c6c     collisioncodegen_api.obj
 0002:00002c75       $stateUnwindMap$??$_Construct_n@AEBQEAU_ccd_vec3_t@@AEBQEAU1@@?$vector@U_ccd_vec3_t@@V?$allocator@U_ccd_vec3_t@@@std@@@std@@AEAAX_KAEBQEAU_ccd_vec3_t@@1@Z 0000000180032c75     collisioncodegen_api.obj
 0002:00002c7b       $ip2state$??$_Construct_n@AEBQEAU_ccd_vec3_t@@AEBQEAU1@@?$vector@U_ccd_vec3_t@@V?$allocator@U_ccd_vec3_t@@@std@@@std@@AEAAX_KAEBQEAU_ccd_vec3_t@@1@Z 0000000180032c7b     collisioncodegen_api.obj
 0002:00002c84       $unwind$?dtor$0@?0???$_Construct_n@AEBQEAU_ccd_vec3_t@@AEBQEAU1@@?$vector@U_ccd_vec3_t@@V?$allocator@U_ccd_vec3_t@@@std@@@std@@AEAAX_KAEBQEAU_ccd_vec3_t@@1@Z@4HA 0000000180032c84     collisioncodegen_api.obj
 0002:00002c8c       $unwind$??$?0$$V@?$_Compressed_pair@V?$allocator@U_ccd_vec3_t@@@std@@V?$_Vector_val@U?$_Simple_types@U_ccd_vec3_t@@@std@@@2@$00@std@@QEAA@U_Zero_then_variadic_args_t@1@@Z 0000000180032c8c     collisioncodegen_api.obj
 0002:00002c94       $unwind$??$?0$$V@?$_Compressed_pair@V?$allocator@D@std@@V?$_String_val@U?$_Simple_types@D@std@@@2@$00@std@@QEAA@U_Zero_then_variadic_args_t@1@@Z 0000000180032c94     collisioncodegen_api.obj
 0002:00002c9c       $unwind$??$_Construct@$00PEBD@?$basic_string@DU?$char_traits@D@std@@V?$allocator@D@2@@std@@AEAAXQEBD_K@Z 0000000180032c9c     collisioncodegen_api.obj
 0002:00002ca4       $unwind$??$max@_K@std@@YAAEB_KAEB_K0@Z 0000000180032ca4     collisioncodegen_api.obj
 0002:00002cac       $unwind$??1?$_Tidy_guard@V?$vector@V?$vector@_KV?$allocator@_K@std@@@std@@V?$allocator@V?$vector@_KV?$allocator@_K@std@@@std@@@2@@std@@@std@@QEAA@XZ 0000000180032cac     collisioncodegen_api.obj
 0002:00002cb4       $unwind$??$_Uninitialized_copy@PEAV?$vector@_KV?$allocator@_K@std@@@std@@PEAV12@V?$allocator@V?$vector@_KV?$allocator@_K@std@@@std@@@2@@std@@YAPEAV?$vector@_KV?$allocator@_K@std@@@0@PEAV10@00AEAV?$allocator@V?$vector@_KV?$allocator@_K@std@@@std@@@0@@Z 0000000180032cb4     collisioncodegen_api.obj
 0002:00002cc4       $cppxdata$??$_Uninitialized_copy@PEAV?$vector@_KV?$allocator@_K@std@@@std@@PEAV12@V?$allocator@V?$vector@_KV?$allocator@_K@std@@@std@@@2@@std@@YAPEAV?$vector@_KV?$allocator@_K@std@@@0@PEAV10@00AEAV?$allocator@V?$vector@_KV?$allocator@_K@std@@@std@@@0@@Z 0000000180032cc4     collisioncodegen_api.obj
 0002:00002ccd       $stateUnwindMap$??$_Uninitialized_copy@PEAV?$vector@_KV?$allocator@_K@std@@@std@@PEAV12@V?$allocator@V?$vector@_KV?$allocator@_K@std@@@std@@@2@@std@@YAPEAV?$vector@_KV?$allocator@_K@std@@@0@PEAV10@00AEAV?$allocator@V?$vector@_KV?$allocator@_K@std@@@std@@@0@@Z 0000000180032ccd     collisioncodegen_api.obj
 0002:00002cd3       $ip2state$??$_Uninitialized_copy@PEAV?$vector@_KV?$allocator@_K@std@@@std@@PEAV12@V?$allocator@V?$vector@_KV?$allocator@_K@std@@@std@@@2@@std@@YAPEAV?$vector@_KV?$allocator@_K@std@@@0@PEAV10@00AEAV?$allocator@V?$vector@_KV?$allocator@_K@std@@@std@@@0@@Z 0000000180032cd3     collisioncodegen_api.obj
 0002:00002cdc       $unwind$?dtor$0@?0???$_Uninitialized_copy@PEAV?$vector@_KV?$allocator@_K@std@@@std@@PEAV12@V?$allocator@V?$vector@_KV?$allocator@_K@std@@@std@@@2@@std@@YAPEAV?$vector@_KV?$allocator@_K@std@@@0@PEAV10@00AEAV?$allocator@V?$vector@_KV?$allocator@_K@std@@@std@@@0@@Z@4HA 0000000180032cdc     collisioncodegen_api.obj
 0002:00002ce4       $unwind$??1?$_Tidy_guard@V?$vector@U_idx_vec3_t@shared_robotics@@V?$allocator@U_idx_vec3_t@shared_robotics@@@std@@@std@@@std@@QEAA@XZ 0000000180032ce4     collisioncodegen_api.obj
 0002:00002cec       $unwind$??$_Uninitialized_copy@PEAU_idx_vec3_t@shared_robotics@@PEAU12@V?$allocator@U_idx_vec3_t@shared_robotics@@@std@@@std@@YAPEAU_idx_vec3_t@shared_robotics@@PEAU12@00AEAV?$allocator@U_idx_vec3_t@shared_robotics@@@0@@Z 0000000180032cec     collisioncodegen_api.obj
 0002:00002cfc       $cppxdata$??$_Uninitialized_copy@PEAU_idx_vec3_t@shared_robotics@@PEAU12@V?$allocator@U_idx_vec3_t@shared_robotics@@@std@@@std@@YAPEAU_idx_vec3_t@shared_robotics@@PEAU12@00AEAV?$allocator@U_idx_vec3_t@shared_robotics@@@0@@Z 0000000180032cfc     collisioncodegen_api.obj
 0002:00002d05       $stateUnwindMap$??$_Uninitialized_copy@PEAU_idx_vec3_t@shared_robotics@@PEAU12@V?$allocator@U_idx_vec3_t@shared_robotics@@@std@@@std@@YAPEAU_idx_vec3_t@shared_robotics@@PEAU12@00AEAV?$allocator@U_idx_vec3_t@shared_robotics@@@0@@Z 0000000180032d05     collisioncodegen_api.obj
 0002:00002d0b       $ip2state$??$_Uninitialized_copy@PEAU_idx_vec3_t@shared_robotics@@PEAU12@V?$allocator@U_idx_vec3_t@shared_robotics@@@std@@@std@@YAPEAU_idx_vec3_t@shared_robotics@@PEAU12@00AEAV?$allocator@U_idx_vec3_t@shared_robotics@@@0@@Z 0000000180032d0b     collisioncodegen_api.obj
 0002:00002d10       $unwind$?dtor$0@?0???$_Uninitialized_copy@PEAU_idx_vec3_t@shared_robotics@@PEAU12@V?$allocator@U_idx_vec3_t@shared_robotics@@@std@@@std@@YAPEAU_idx_vec3_t@shared_robotics@@PEAU12@00AEAV?$allocator@U_idx_vec3_t@shared_robotics@@@0@@Z@4HA 0000000180032d10     collisioncodegen_api.obj
 0002:00002d18       $unwind$??$_Emplace_back_with_unused_capacity@AEBU_ccd_vec3_t@@@?$vector@U_ccd_vec3_t@@V?$allocator@U_ccd_vec3_t@@@std@@@std@@AEAAAEAU_ccd_vec3_t@@AEBU2@@Z 0000000180032d18     collisioncodegen_api.obj
 0002:00002d20       $unwind$??$_Emplace_reallocate@AEBU_ccd_vec3_t@@@?$vector@U_ccd_vec3_t@@V?$allocator@U_ccd_vec3_t@@@std@@@std@@AEAAPEAU_ccd_vec3_t@@QEAU2@AEBU2@@Z 0000000180032d20     collisioncodegen_api.obj
 0002:00002d30       $cppxdata$??$_Emplace_reallocate@AEBU_ccd_vec3_t@@@?$vector@U_ccd_vec3_t@@V?$allocator@U_ccd_vec3_t@@@std@@@std@@AEAAPEAU_ccd_vec3_t@@QEAU2@AEBU2@@Z 0000000180032d30     collisioncodegen_api.obj
 0002:00002d3d       $stateUnwindMap$??$_Emplace_reallocate@AEBU_ccd_vec3_t@@@?$vector@U_ccd_vec3_t@@V?$allocator@U_ccd_vec3_t@@@std@@@std@@AEAAPEAU_ccd_vec3_t@@QEAU2@AEBU2@@Z 0000000180032d3d     collisioncodegen_api.obj
 0002:00002d40       $tryMap$??$_Emplace_reallocate@AEBU_ccd_vec3_t@@@?$vector@U_ccd_vec3_t@@V?$allocator@U_ccd_vec3_t@@@std@@@std@@AEAAPEAU_ccd_vec3_t@@QEAU2@AEBU2@@Z 0000000180032d40     collisioncodegen_api.obj
 0002:00002d48       $handlerMap$??$_Emplace_reallocate@AEBU_ccd_vec3_t@@@?$vector@U_ccd_vec3_t@@V?$allocator@U_ccd_vec3_t@@@std@@@std@@AEAAPEAU_ccd_vec3_t@@QEAU2@AEBU2@@Z 0000000180032d48     collisioncodegen_api.obj
 0002:00002d4f       $ip2state$??$_Emplace_reallocate@AEBU_ccd_vec3_t@@@?$vector@U_ccd_vec3_t@@V?$allocator@U_ccd_vec3_t@@@std@@@std@@AEAAPEAU_ccd_vec3_t@@QEAU2@AEBU2@@Z 0000000180032d4f     collisioncodegen_api.obj
 0002:00002d58       $unwind$?catch$0@?0???$_Emplace_reallocate@AEBU_ccd_vec3_t@@@?$vector@U_ccd_vec3_t@@V?$allocator@U_ccd_vec3_t@@@std@@@std@@AEAAPEAU_ccd_vec3_t@@QEAU2@AEBU2@@Z@4HA 0000000180032d58     collisioncodegen_api.obj
 0002:00002d60       $unwind$??1?$_Tidy_guard@V?$vector@U_ccd_vec3_t@@V?$allocator@U_ccd_vec3_t@@@std@@@std@@@std@@QEAA@XZ 0000000180032d60     collisioncodegen_api.obj
 0002:00002d68       $unwind$??$_Uninitialized_copy@PEAU_ccd_vec3_t@@PEAU1@V?$allocator@U_ccd_vec3_t@@@std@@@std@@YAPEAU_ccd_vec3_t@@PEAU1@00AEAV?$allocator@U_ccd_vec3_t@@@0@@Z 0000000180032d68     collisioncodegen_api.obj
 0002:00002d78       $cppxdata$??$_Uninitialized_copy@PEAU_ccd_vec3_t@@PEAU1@V?$allocator@U_ccd_vec3_t@@@std@@@std@@YAPEAU_ccd_vec3_t@@PEAU1@00AEAV?$allocator@U_ccd_vec3_t@@@0@@Z 0000000180032d78     collisioncodegen_api.obj
 0002:00002d81       $stateUnwindMap$??$_Uninitialized_copy@PEAU_ccd_vec3_t@@PEAU1@V?$allocator@U_ccd_vec3_t@@@std@@@std@@YAPEAU_ccd_vec3_t@@PEAU1@00AEAV?$allocator@U_ccd_vec3_t@@@0@@Z 0000000180032d81     collisioncodegen_api.obj
 0002:00002d87       $ip2state$??$_Uninitialized_copy@PEAU_ccd_vec3_t@@PEAU1@V?$allocator@U_ccd_vec3_t@@@std@@@std@@YAPEAU_ccd_vec3_t@@PEAU1@00AEAV?$allocator@U_ccd_vec3_t@@@0@@Z 0000000180032d87     collisioncodegen_api.obj
 0002:00002d8c       $unwind$?dtor$0@?0???$_Uninitialized_copy@PEAU_ccd_vec3_t@@PEAU1@V?$allocator@U_ccd_vec3_t@@@std@@@std@@YAPEAU_ccd_vec3_t@@PEAU1@00AEAV?$allocator@U_ccd_vec3_t@@@0@@Z@4HA 0000000180032d8c     collisioncodegen_api.obj
 0002:00002d94       $unwind$??$_Construct_in_place@PEADAEBQEAD@std@@YAXAEAPEADAEBQEAD@Z 0000000180032d94     collisioncodegen_api.obj
 0002:00002d9c       $unwind$??$_Get_size_of_n@$00@std@@YA_K_K@Z 0000000180032d9c     collisioncodegen_api.obj
 0002:00002da4       $unwind$??$_Emplace_back@AEAV?$vector@_KV?$allocator@_K@std@@@std@@@?$_Uninitialized_backout_al@V?$allocator@V?$vector@_KV?$allocator@_K@std@@@std@@@std@@@std@@QEAAXAEAV?$vector@_KV?$allocator@_K@std@@@1@@Z 0000000180032da4     collisioncodegen_api.obj
 0002:00002dac       $unwind$??$_Copy_memmove@PEAU_idx_vec3_t@shared_robotics@@PEAU12@@std@@YAPEAU_idx_vec3_t@shared_robotics@@PEAU12@00@Z 0000000180032dac     collisioncodegen_api.obj
 0002:00002db4       $unwind$??1?$_Uninitialized_backout_al@V?$allocator@U_idx_vec3_t@shared_robotics@@@std@@@std@@QEAA@XZ 0000000180032db4     collisioncodegen_api.obj
 0002:00002dbc       $unwind$??$_Emplace_back@AEAU_idx_vec3_t@shared_robotics@@@?$_Uninitialized_backout_al@V?$allocator@U_idx_vec3_t@shared_robotics@@@std@@@std@@QEAAXAEAU_idx_vec3_t@shared_robotics@@@Z 0000000180032dbc     collisioncodegen_api.obj
 0002:00002dc4       $unwind$??$_Construct_in_place@U_ccd_vec3_t@@AEBU1@@std@@YAXAEAU_ccd_vec3_t@@AEBU1@@Z 0000000180032dc4     collisioncodegen_api.obj
 0002:00002dd0       $unwind$??$construct@U_ccd_vec3_t@@AEBU1@@?$_Default_allocator_traits@V?$allocator@U_ccd_vec3_t@@@std@@@std@@SAXAEAV?$allocator@U_ccd_vec3_t@@@1@QEAU_ccd_vec3_t@@AEBU3@@Z 0000000180032dd0     collisioncodegen_api.obj
 0002:00002ddc       $unwind$??$_Uninitialized_move@PEAU_ccd_vec3_t@@V?$allocator@U_ccd_vec3_t@@@std@@@std@@YAPEAU_ccd_vec3_t@@QEAU1@0PEAU1@AEAV?$allocator@U_ccd_vec3_t@@@0@@Z 0000000180032ddc     collisioncodegen_api.obj
 0002:00002dec       $cppxdata$??$_Uninitialized_move@PEAU_ccd_vec3_t@@V?$allocator@U_ccd_vec3_t@@@std@@@std@@YAPEAU_ccd_vec3_t@@QEAU1@0PEAU1@AEAV?$allocator@U_ccd_vec3_t@@@0@@Z 0000000180032dec     collisioncodegen_api.obj
 0002:00002df5       $stateUnwindMap$??$_Uninitialized_move@PEAU_ccd_vec3_t@@V?$allocator@U_ccd_vec3_t@@@std@@@std@@YAPEAU_ccd_vec3_t@@QEAU1@0PEAU1@AEAV?$allocator@U_ccd_vec3_t@@@0@@Z 0000000180032df5     collisioncodegen_api.obj
 0002:00002dfb       $ip2state$??$_Uninitialized_move@PEAU_ccd_vec3_t@@V?$allocator@U_ccd_vec3_t@@@std@@@std@@YAPEAU_ccd_vec3_t@@QEAU1@0PEAU1@AEAV?$allocator@U_ccd_vec3_t@@@0@@Z 0000000180032dfb     collisioncodegen_api.obj
 0002:00002e00       $unwind$?dtor$0@?0???$_Uninitialized_move@PEAU_ccd_vec3_t@@V?$allocator@U_ccd_vec3_t@@@std@@@std@@YAPEAU_ccd_vec3_t@@QEAU1@0PEAU1@AEAV?$allocator@U_ccd_vec3_t@@@0@@Z@4HA 0000000180032e00     collisioncodegen_api.obj
 0002:00002e08       $unwind$??$_Copy_memmove@PEAU_ccd_vec3_t@@PEAU1@@std@@YAPEAU_ccd_vec3_t@@PEAU1@00@Z 0000000180032e08     collisioncodegen_api.obj
 0002:00002e10       $unwind$??1?$_Uninitialized_backout_al@V?$allocator@U_ccd_vec3_t@@@std@@@std@@QEAA@XZ 0000000180032e10     collisioncodegen_api.obj
 0002:00002e18       $unwind$??$_Emplace_back@AEAU_ccd_vec3_t@@@?$_Uninitialized_backout_al@V?$allocator@U_ccd_vec3_t@@@std@@@std@@QEAAXAEAU_ccd_vec3_t@@@Z 0000000180032e18     collisioncodegen_api.obj
 0002:00002e20       $unwind$??$construct@V?$vector@_KV?$allocator@_K@std@@@std@@AEAV12@@?$_Default_allocator_traits@V?$allocator@V?$vector@_KV?$allocator@_K@std@@@std@@@std@@@std@@SAXAEAV?$allocator@V?$vector@_KV?$allocator@_K@std@@@std@@@1@QEAV?$vector@_KV?$allocator@_K@std@@@1@AEAV31@@Z 0000000180032e20     collisioncodegen_api.obj
 0002:00002e28       $unwind$??$construct@U_idx_vec3_t@shared_robotics@@AEAU12@@?$_Default_allocator_traits@V?$allocator@U_idx_vec3_t@shared_robotics@@@std@@@std@@SAXAEAV?$allocator@U_idx_vec3_t@shared_robotics@@@1@QEAU_idx_vec3_t@shared_robotics@@AEAU34@@Z 0000000180032e28     collisioncodegen_api.obj
 0002:00002e34       $unwind$??$_Emplace_back@U_ccd_vec3_t@@@?$_Uninitialized_backout_al@V?$allocator@U_ccd_vec3_t@@@std@@@std@@QEAAX$$QEAU_ccd_vec3_t@@@Z 0000000180032e34     collisioncodegen_api.obj
 0002:00002e3c       $unwind$??$construct@U_ccd_vec3_t@@AEAU1@@?$_Default_allocator_traits@V?$allocator@U_ccd_vec3_t@@@std@@@std@@SAXAEAV?$allocator@U_ccd_vec3_t@@@1@QEAU_ccd_vec3_t@@AEAU3@@Z 0000000180032e3c     collisioncodegen_api.obj
 0002:00002e48       $unwind$??$construct@U_ccd_vec3_t@@U1@@?$_Default_allocator_traits@V?$allocator@U_ccd_vec3_t@@@std@@@std@@SAXAEAV?$allocator@U_ccd_vec3_t@@@1@QEAU_ccd_vec3_t@@$$QEAU3@@Z 0000000180032e48     collisioncodegen_api.obj
 0002:00002e54       $unwind$??$?0V?$allocator@_K@std@@$$V@?$_Compressed_pair@V?$allocator@_K@std@@V?$_Vector_val@U?$_Simple_types@_K@std@@@2@$00@std@@QEAA@U_One_then_variadic_args_t@1@$$QEAV?$allocator@_K@1@@Z 0000000180032e54     collisioncodegen_api.obj
 0002:00002e5c       $unwind$??$_Construct_n@AEBQEA_KAEBQEA_K@?$vector@_KV?$allocator@_K@std@@@std@@AEAAX_KAEBQEA_K1@Z 0000000180032e5c     collisioncodegen_api.obj
 0002:00002e6c       $cppxdata$??$_Construct_n@AEBQEA_KAEBQEA_K@?$vector@_KV?$allocator@_K@std@@@std@@AEAAX_KAEBQEA_K1@Z 0000000180032e6c     collisioncodegen_api.obj
 0002:00002e75       $stateUnwindMap$??$_Construct_n@AEBQEA_KAEBQEA_K@?$vector@_KV?$allocator@_K@std@@@std@@AEAAX_KAEBQEA_K1@Z 0000000180032e75     collisioncodegen_api.obj
 0002:00002e7b       $ip2state$??$_Construct_n@AEBQEA_KAEBQEA_K@?$vector@_KV?$allocator@_K@std@@@std@@AEAAX_KAEBQEA_K1@Z 0000000180032e7b     collisioncodegen_api.obj
 0002:00002e84       $unwind$?dtor$0@?0???$_Construct_n@AEBQEA_KAEBQEA_K@?$vector@_KV?$allocator@_K@std@@@std@@AEAAX_KAEBQEA_K1@Z@4HA 0000000180032e84     collisioncodegen_api.obj
 0002:00002e8c       $unwind$??1?$_Tidy_guard@V?$vector@_KV?$allocator@_K@std@@@std@@@std@@QEAA@XZ 0000000180032e8c     collisioncodegen_api.obj
 0002:00002e94       $unwind$??$_Uninitialized_copy@PEA_KPEA_KV?$allocator@_K@std@@@std@@YAPEA_KPEA_K00AEAV?$allocator@_K@0@@Z 0000000180032e94     collisioncodegen_api.obj
 0002:00002ea4       $cppxdata$??$_Uninitialized_copy@PEA_KPEA_KV?$allocator@_K@std@@@std@@YAPEA_KPEA_K00AEAV?$allocator@_K@0@@Z 0000000180032ea4     collisioncodegen_api.obj
 0002:00002ead       $stateUnwindMap$??$_Uninitialized_copy@PEA_KPEA_KV?$allocator@_K@std@@@std@@YAPEA_KPEA_K00AEAV?$allocator@_K@0@@Z 0000000180032ead     collisioncodegen_api.obj
 0002:00002eb3       $ip2state$??$_Uninitialized_copy@PEA_KPEA_KV?$allocator@_K@std@@@std@@YAPEA_KPEA_K00AEAV?$allocator@_K@0@@Z 0000000180032eb3     collisioncodegen_api.obj
 0002:00002eb8       $unwind$?dtor$0@?0???$_Uninitialized_copy@PEA_KPEA_KV?$allocator@_K@std@@@std@@YAPEA_KPEA_K00AEAV?$allocator@_K@0@@Z@4HA 0000000180032eb8     collisioncodegen_api.obj
 0002:00002ec0       $unwind$??$_Emplace_back@AEA_K@?$_Uninitialized_backout_al@V?$allocator@_K@std@@@std@@QEAAXAEA_K@Z 0000000180032ec0     collisioncodegen_api.obj
 0002:00002ec8       $unwind$??$construct@_KAEA_K@?$_Default_allocator_traits@V?$allocator@_K@std@@@std@@SAXAEAV?$allocator@_K@1@QEA_KAEA_K@Z 0000000180032ec8     collisioncodegen_api.obj
 0002:00002ed0       $unwind$ccdEq              0000000180032ed0     collisioncodegen_ccdExtensions.obj
 0002:00002ed8       $unwind$ccdVec3Eq          0000000180032ed8     collisioncodegen_ccdExtensions.obj
 0002:00002ee0       $unwind$ccdVec3Len2        0000000180032ee0     collisioncodegen_ccdExtensions.obj
 0002:00002ee8       $unwind$ccdVec3Copy        0000000180032ee8     collisioncodegen_ccdExtensions.obj
 0002:00002ef0       $unwind$ccdVec3Dot         0000000180032ef0     collisioncodegen_ccdExtensions.obj
 0002:00002ef8       $unwind$?ccdDistance@shared_robotics@@YANPEBX0PEBU_ccd_t@@PEAU_ccd_vec3_t@@2@Z 0000000180032ef8     collisioncodegen_ccdExtensions.obj
 0002:00002f0c       $unwind$?distanceToOrigin@shared_robotics@@YANPEAU_ccd_simplex_t@@AEAPEAU_ccd_vec3_t@@@Z 0000000180032f0c     collisioncodegen_ccdExtensions.obj
 0002:00002f20       $unwind$?extractWitnessPoints@shared_robotics@@YAXPEBU_ccd_simplex_t@@PEBU_ccd_vec3_t@@PEAU3@2@Z 0000000180032f20     collisioncodegen_ccdExtensions.obj
 0002:00002f2c       $unwind$?interpolateBetweenTwoSupportPoints@shared_robotics@@YAXAEAPEBU_ccd_simplex_t@@AEAPEBU_ccd_vec3_t@@AEAPEAU3@2@Z 0000000180032f2c     collisioncodegen_ccdExtensions.obj
 0002:00002f40       $unwind$?interpolateAmongThreeSupportPoints@shared_robotics@@YAXAEAPEBU_ccd_simplex_t@@AEAPEBU_ccd_vec3_t@@AEAPEAU3@2@Z 0000000180032f40     collisioncodegen_ccdExtensions.obj
 0002:00002f54       $unwind$?barycentricCoordinates@@YAXPEBU_ccd_vec3_t@@000PEAU1@@Z 0000000180032f54     collisioncodegen_ccdExtensions.obj
 0002:00002f64       $unwind$intersect          0000000180032f64     collisioncodegen_checkCollision.obj
 0002:00002f74       $unwind$updatePose         0000000180032f74     collisioncodegen_checkCollision.obj
 0002:00002f7c       $unwind$?fSupport@@YAXPEBXPEBU_ccd_vec3_t@@PEAU1@@Z 0000000180032f7c     collisioncodegen_checkCollision.obj
 0002:00002f84       $unwind$__report_securityfailure 0000000180032f84     MSVCRT:gs_report.obj
 0002:00002f8c       $unwind$__report_securityfailureEx 0000000180032f8c     MSVCRT:gs_report.obj
 0002:00002f94       $unwind$__report_rangecheckfailure 0000000180032f94     MSVCRT:gs_report.obj
 0002:00002f9c       $unwind$__report_gsfailure 0000000180032f9c     MSVCRT:gs_report.obj
 0002:00002fa4       $unwind$capture_current_context 0000000180032fa4     MSVCRT:gs_report.obj
 0002:00002fb0       $unwind$capture_previous_context 0000000180032fb0     MSVCRT:gs_report.obj
 0002:00002fbc       $unwind$__raise_securityfailure 0000000180032fbc     MSVCRT:gs_report.obj
 0002:00002fc4       $unwind$__GSHandlerCheckCommon 0000000180032fc4     MSVCRT:gshandler.obj
 0002:00002fcc       $unwind$__GSHandlerCheck   0000000180032fcc     MSVCRT:gshandler.obj
 0002:00002fd8       $xdatasym                  0000000180032fd8     MSVCRT:amdsecgs.obj
 0002:00002fdc       $unwind$??2@YAPEAX_K@Z     0000000180032fdc     MSVCRT:new_scalar.obj
 0002:00002fe4       $unwind$__GSHandlerCheck_EH4 0000000180032fe4     MSVCRT:gshandlereh4.obj
 0002:00002ffc       $unwind$??_Gtype_info@@UEAAPEAXI@Z 0000000180032ffc     MSVCRT:std_type_info_static.obj
 0002:00003004       $unwind$?dllmain_crt_process_attach@@YAHQEAUHINSTANCE__@@QEAX@Z 0000000180033004     MSVCRT:dll_dllmain.obj
 0002:00003040       $unwind$?fin$0@?0??dllmain_crt_process_attach@@YAHQEAUHINSTANCE__@@QEAX@Z@4HA 0000000180033040     MSVCRT:dll_dllmain.obj
 0002:00003048       $unwind$?dllmain_crt_process_detach@@YAH_N@Z 0000000180033048     MSVCRT:dll_dllmain.obj
 0002:0000309c       $unwind$?fin$0@?0??dllmain_crt_process_detach@@YAH_N@Z@4HA 000000018003309c     MSVCRT:dll_dllmain.obj
 0002:000030a4       $unwind$?fin$1@?0??dllmain_crt_process_detach@@YAH_N@Z@4HA 00000001800330a4     MSVCRT:dll_dllmain.obj
 0002:000030ac       $unwind$?dllmain_crt_dispatch@@YAHQEAUHINSTANCE__@@KQEAX@Z 00000001800330ac     MSVCRT:dll_dllmain.obj
 0002:000030b4       $unwind$?dllmain_dispatch@@YAHQEAUHINSTANCE__@@KQEAX@Z 00000001800330b4     MSVCRT:dll_dllmain.obj
 0002:000030dc       $unwind$?filt$0@?0??dllmain_dispatch@@YAHQEAUHINSTANCE__@@KQEAX@Z@4HA 00000001800330dc     MSVCRT:dll_dllmain.obj
 0002:000030e4       $unwind$_DllMainCRTStartup 00000001800330e4     MSVCRT:dll_dllmain.obj
 0002:000030f4       $unwind$?__scrt_throw_std_bad_alloc@@YAXXZ 00000001800330f4     MSVCRT:throw_bad_alloc.obj
 0002:000030fc       $unwind$?__scrt_throw_std_bad_array_new_length@@YAXXZ 00000001800330fc     MSVCRT:throw_bad_alloc.obj
 0002:00003104       $unwind$__security_init_cookie 0000000180033104     MSVCRT:gs_support.obj
 0002:00003110       $unwind$__get_entropy      0000000180033110     MSVCRT:gs_support.obj
 0002:00003118       $unwind$DllMain            0000000180033118     MSVCRT:dll_dllmain_stub.obj
 0002:00003120       $unwind$__scrt_initialize_default_local_stdio_options 0000000180033120     MSVCRT:default_local_stdio_options.obj
 0002:00003128       $unwind$atexit             0000000180033128     MSVCRT:utility.obj
 0002:00003130       $unwind$_onexit            0000000180033130     MSVCRT:utility.obj
 0002:00003138       $unwind$__scrt_is_nonwritable_in_current_image 0000000180033138     MSVCRT:utility.obj
 0002:00003158       $unwind$__scrt_is_nonwritable_in_current_image$filt$0 0000000180033158     MSVCRT:utility.obj
 0002:00003160       $unwind$__scrt_acquire_startup_lock 0000000180033160     MSVCRT:utility.obj
 0002:00003168       $unwind$__scrt_release_startup_lock 0000000180033168     MSVCRT:utility.obj
 0002:00003170       $unwind$__scrt_initialize_crt 0000000180033170     MSVCRT:utility.obj
 0002:00003178       $unwind$__scrt_uninitialize_crt 0000000180033178     MSVCRT:utility.obj
 0002:00003180       $unwind$__scrt_initialize_onexit_tables 0000000180033180     MSVCRT:utility.obj
 0002:00003188       $unwind$__scrt_dllmain_exception_filter 0000000180033188     MSVCRT:utility.obj
 0002:0000319c       $unwind$__scrt_dllmain_before_initialize_c 000000018003319c     MSVCRT:utility.obj
 0002:000031a4       $unwind$__scrt_dllmain_after_initialize_c 00000001800331a4     MSVCRT:utility.obj
 0002:000031ac       $unwind$__scrt_dllmain_uninitialize_c 00000001800331ac     MSVCRT:utility.obj
 0002:000031b4       $unwind$__scrt_dllmain_uninitialize_critical 00000001800331b4     MSVCRT:utility.obj
 0002:000031bc       $unwind$__scrt_dllmain_crt_thread_attach 00000001800331bc     MSVCRT:utility.obj
 0002:000031c4       $unwind$__scrt_dllmain_crt_thread_detach 00000001800331c4     MSVCRT:utility.obj
 0002:000031cc       $unwind$?configure_argv@__scrt_narrow_argv_policy@@SAHXZ 00000001800331cc     MSVCRT:utility.obj
 0002:000031d4       $unwind$__scrt_get_show_window_mode 00000001800331d4     MSVCRT:utility_desktop.obj
 0002:000031dc       $unwind$__scrt_is_managed_app 00000001800331dc     MSVCRT:utility_desktop.obj
 0002:000031e4       $unwind$__scrt_fastfail    00000001800331e4     MSVCRT:utility_desktop.obj
 0002:000031f4       $unwind$__scrt_unhandled_exception_filter 00000001800331f4     MSVCRT:utility_desktop.obj
 0002:00003200       $unwind$_RTC_Initialize    0000000180033200     MSVCRT:initsect.obj
 0002:0000320c       $unwind$_RTC_Terminate     000000018003320c     MSVCRT:initsect.obj
 0002:00003218       $unwind$__castguard_check_failure_os_handled_wrapper 0000000180033218     MSVCRT:guard_support.obj
 0002:00003220       $unwind$__castguard_check_failure_user_handled_wrapper 0000000180033220     MSVCRT:guard_support.obj
 0002:00003228       $unwind$__castguard_check_failure_os_handled 0000000180033228     MSVCRT:guard_support.obj
 0002:00003230       $unwind$__castguard_check_failure_user_handled 0000000180033230     MSVCRT:guard_support.obj
 0002:00003238       $unwind$__castguard_slow_path_check_os_handled 0000000180033238     MSVCRT:guard_support.obj
 0002:00003240       $unwind$__castguard_slow_path_check_user_handled 0000000180033240     MSVCRT:guard_support.obj
 0002:00003248       $unwind$__isa_available_init 0000000180033248     MSVCRT:cpu_disp.obj
 0002:00003258       $xdatasym                  0000000180033258     MSVCRT:guard_dispatch.obj
 0002:00003260       $xdatasym                  0000000180033260     MSVCRT:guard_xfg_dispatch.obj
 0002:00003360       .edata                     0000000180033360     SCARA_Control_System_cgxe.exp
 0002:00003388       rgpv                       0000000180033388     SCARA_Control_System_cgxe.exp
 0002:000033e8       rgszName                   00000001800333e8     SCARA_Control_System_cgxe.exp
 0002:00003448       rgwOrd                     0000000180033448     SCARA_Control_System_cgxe.exp
 0002:00003478       szName                     0000000180033478     SCARA_Control_System_cgxe.exp
 0002:00003499       $N00001                    0000000180033499     SCARA_Control_System_cgxe.exp
 0002:000034a2       $N00002                    00000001800334a2     SCARA_Control_System_cgxe.exp
 0002:000034af       $N00003                    00000001800334af     SCARA_Control_System_cgxe.exp
 0002:000034c2       $N00004                    00000001800334c2     SCARA_Control_System_cgxe.exp
 0002:000034d2       $N00005                    00000001800334d2     SCARA_Control_System_cgxe.exp
 0002:000034e4       $N00006                    00000001800334e4     SCARA_Control_System_cgxe.exp
 0002:000034f3       $N00007                    00000001800334f3     SCARA_Control_System_cgxe.exp
 0002:00003503       $N00008                    0000000180033503     SCARA_Control_System_cgxe.exp
 0002:00003515       $N00009                    0000000180033515     SCARA_Control_System_cgxe.exp
 0002:00003522       $N00010                    0000000180033522     SCARA_Control_System_cgxe.exp
 0002:0000352f       $N00011                    000000018003352f     SCARA_Control_System_cgxe.exp
 0002:0000353e       $N00012                    000000018003353e     SCARA_Control_System_cgxe.exp
 0002:0000354b       $N00013                    000000018003354b     SCARA_Control_System_cgxe.exp
 0002:00003558       $N00014                    0000000180033558     SCARA_Control_System_cgxe.exp
 0002:00003566       $N00015                    0000000180033566     SCARA_Control_System_cgxe.exp
 0002:00003570       $N00016                    0000000180033570     SCARA_Control_System_cgxe.exp
 0002:0000357d       $N00017                    000000018003357d     SCARA_Control_System_cgxe.exp
 0002:00003595       $N00018                    0000000180033595     SCARA_Control_System_cgxe.exp
 0002:000035ae       $N00019                    00000001800335ae     SCARA_Control_System_cgxe.exp
 0002:000035c3       $N00020                    00000001800335c3     SCARA_Control_System_cgxe.exp
 0002:000035d8       $N00021                    00000001800335d8     SCARA_Control_System_cgxe.exp
 0002:000035f1       $N00022                    00000001800335f1     SCARA_Control_System_cgxe.exp
 0002:00003601       $N00023                    0000000180033601     SCARA_Control_System_cgxe.exp
 0002:0000360d       $N00024                    000000018003360d     SCARA_Control_System_cgxe.exp
 0002:00003da8       .idata$6                   0000000180033da8     libmx:libmx.dll
 0002:00003e0c       .idata$6                   0000000180033e0c     libmex:libmex.dll
 0002:00003e98       .idata$6                   0000000180033e98     libmwmathutil:libmwmathutil.dll
 0002:00004032       .idata$6                   0000000180034032     libemlrt:libemlrt.dll
 0002:00004106       .idata$6                   0000000180034106     libmwcgxert:libmwcgxert.dll
 0002:0000411e       .idata$6                   000000018003411e     libmwblas:libmwblas.dll
 0002:00004558       .idata$6                   0000000180034558     msvcprt:MSVCP140.dll
 0002:000046f2       .idata$6                   00000001800346f2     kernel32:KERNEL32.dll
 0002:000047e8       .idata$6                   00000001800347e8     vcruntime:VCRUNTIME140.dll
 0002:000047fa       .idata$6                   00000001800347fa     vcruntime:VCRUNTIME140_1.dll
 0002:000049dc       .idata$6                   00000001800349dc     ucrt:api-ms-win-crt-heap-l1-1-0.dll
 0002:000049fc       .idata$6                   00000001800349fc     ucrt:api-ms-win-crt-string-l1-1-0.dll
 0002:00004a1e       .idata$6                   0000000180034a1e     ucrt:api-ms-win-crt-stdio-l1-1-0.dll
 0002:00004a3e       .idata$6                   0000000180034a3e     ucrt:api-ms-win-crt-math-l1-1-0.dll
 0002:00004a5e       .idata$6                   0000000180034a5e     ucrt:api-ms-win-crt-utility-l1-1-0.dll
 0002:00004a80       .idata$6                   0000000180034a80     ucrt:api-ms-win-crt-runtime-l1-1-0.dll
 0003:00000000       $SG20259                   0000000180035000     m_nM5NMYJUCkhQa81HtyaWRC.obj
 0003:00000020       $SG20260                   0000000180035020     m_nM5NMYJUCkhQa81HtyaWRC.obj
 0003:000000a4       $SG20262                   00000001800350a4     m_nM5NMYJUCkhQa81HtyaWRC.obj
 0003:000000b0       $SG20263                   00000001800350b0     m_nM5NMYJUCkhQa81HtyaWRC.obj
 0003:00000110       $SG20265                   0000000180035110     m_nM5NMYJUCkhQa81HtyaWRC.obj
 0003:00000120       $SG20266                   0000000180035120     m_nM5NMYJUCkhQa81HtyaWRC.obj
 0003:00000180       $SG20268                   0000000180035180     m_nM5NMYJUCkhQa81HtyaWRC.obj
 0003:00000190       $SG20269                   0000000180035190     m_nM5NMYJUCkhQa81HtyaWRC.obj
 0003:000001f0       $SG20277                   00000001800351f0     m_nM5NMYJUCkhQa81HtyaWRC.obj
 0003:00000210       $SG20278                   0000000180035210     m_nM5NMYJUCkhQa81HtyaWRC.obj
 0003:00000298       $SG20280                   0000000180035298     m_nM5NMYJUCkhQa81HtyaWRC.obj
 0003:000002b0       $SG20281                   00000001800352b0     m_nM5NMYJUCkhQa81HtyaWRC.obj
 0003:00000318       $SG20283                   0000000180035318     m_nM5NMYJUCkhQa81HtyaWRC.obj
 0003:00000330       $SG20284                   0000000180035330     m_nM5NMYJUCkhQa81HtyaWRC.obj
 0003:00000398       $SG20286                   0000000180035398     m_nM5NMYJUCkhQa81HtyaWRC.obj
 0003:000003b0       $SG20287                   00000001800353b0     m_nM5NMYJUCkhQa81HtyaWRC.obj
 0003:00000418       $SG20289                   0000000180035418     m_nM5NMYJUCkhQa81HtyaWRC.obj
 0003:00000430       $SG20290                   0000000180035430     m_nM5NMYJUCkhQa81HtyaWRC.obj
 0003:00000498       $SG20292                   0000000180035498     m_nM5NMYJUCkhQa81HtyaWRC.obj
 0003:000004b0       $SG20293                   00000001800354b0     m_nM5NMYJUCkhQa81HtyaWRC.obj
 0003:00000518       $SG20295                   0000000180035518     m_nM5NMYJUCkhQa81HtyaWRC.obj
 0003:00000530       $SG20296                   0000000180035530     m_nM5NMYJUCkhQa81HtyaWRC.obj
 0003:00000598       $SG20298                   0000000180035598     m_nM5NMYJUCkhQa81HtyaWRC.obj
 0003:000005b0       $SG20299                   00000001800355b0     m_nM5NMYJUCkhQa81HtyaWRC.obj
 0003:00000618       $SG20301                   0000000180035618     m_nM5NMYJUCkhQa81HtyaWRC.obj
 0003:00000630       $SG20302                   0000000180035630     m_nM5NMYJUCkhQa81HtyaWRC.obj
 0003:00000698       $SG20304                   0000000180035698     m_nM5NMYJUCkhQa81HtyaWRC.obj
 0003:000006b0       $SG20305                   00000001800356b0     m_nM5NMYJUCkhQa81HtyaWRC.obj
 0003:00000718       $SG20307                   0000000180035718     m_nM5NMYJUCkhQa81HtyaWRC.obj
 0003:00000730       $SG20308                   0000000180035730     m_nM5NMYJUCkhQa81HtyaWRC.obj
 0003:00000780       $SG20310                   0000000180035780     m_nM5NMYJUCkhQa81HtyaWRC.obj
 0003:00000790       $SG20311                   0000000180035790     m_nM5NMYJUCkhQa81HtyaWRC.obj
 0003:00000800       $SG20313                   0000000180035800     m_nM5NMYJUCkhQa81HtyaWRC.obj
 0003:00000810       $SG20314                   0000000180035810     m_nM5NMYJUCkhQa81HtyaWRC.obj
 0003:00000878       $SG20316                   0000000180035878     m_nM5NMYJUCkhQa81HtyaWRC.obj
 0003:00000890       $SG20317                   0000000180035890     m_nM5NMYJUCkhQa81HtyaWRC.obj
 0003:000008f8       $SG20319                   00000001800358f8     m_nM5NMYJUCkhQa81HtyaWRC.obj
 0003:00000910       $SG20320                   0000000180035910     m_nM5NMYJUCkhQa81HtyaWRC.obj
 0003:00000978       $SG20322                   0000000180035978     m_nM5NMYJUCkhQa81HtyaWRC.obj
 0003:00000990       $SG20323                   0000000180035990     m_nM5NMYJUCkhQa81HtyaWRC.obj
 0003:000009f8       $SG20325                   00000001800359f8     m_nM5NMYJUCkhQa81HtyaWRC.obj
 0003:00000a10       $SG20326                   0000000180035a10     m_nM5NMYJUCkhQa81HtyaWRC.obj
 0003:00000a78       $SG20334                   0000000180035a78     m_nM5NMYJUCkhQa81HtyaWRC.obj
 0003:00000a90       $SG20335                   0000000180035a90     m_nM5NMYJUCkhQa81HtyaWRC.obj
 0003:00000b18       $SG20337                   0000000180035b18     m_nM5NMYJUCkhQa81HtyaWRC.obj
 0003:00000b30       $SG20338                   0000000180035b30     m_nM5NMYJUCkhQa81HtyaWRC.obj
 0003:00000b98       $SG20340                   0000000180035b98     m_nM5NMYJUCkhQa81HtyaWRC.obj
 0003:00000bb0       $SG20341                   0000000180035bb0     m_nM5NMYJUCkhQa81HtyaWRC.obj
 0003:00000c18       $SG20343                   0000000180035c18     m_nM5NMYJUCkhQa81HtyaWRC.obj
 0003:00000c30       $SG20344                   0000000180035c30     m_nM5NMYJUCkhQa81HtyaWRC.obj
 0003:00000c98       $SG20346                   0000000180035c98     m_nM5NMYJUCkhQa81HtyaWRC.obj
 0003:00000cb0       $SG20347                   0000000180035cb0     m_nM5NMYJUCkhQa81HtyaWRC.obj
 0003:00000d18       $SG20349                   0000000180035d18     m_nM5NMYJUCkhQa81HtyaWRC.obj
 0003:00000d30       $SG20350                   0000000180035d30     m_nM5NMYJUCkhQa81HtyaWRC.obj
 0003:00000d98       $SG20352                   0000000180035d98     m_nM5NMYJUCkhQa81HtyaWRC.obj
 0003:00000db0       $SG20353                   0000000180035db0     m_nM5NMYJUCkhQa81HtyaWRC.obj
 0003:00000e18       $SG20355                   0000000180035e18     m_nM5NMYJUCkhQa81HtyaWRC.obj
 0003:00000e30       $SG20356                   0000000180035e30     m_nM5NMYJUCkhQa81HtyaWRC.obj
 0003:00000e98       $SG20358                   0000000180035e98     m_nM5NMYJUCkhQa81HtyaWRC.obj
 0003:00000eb0       $SG20359                   0000000180035eb0     m_nM5NMYJUCkhQa81HtyaWRC.obj
 0003:00000f00       $SG20361                   0000000180035f00     m_nM5NMYJUCkhQa81HtyaWRC.obj
 0003:00000f10       $SG20362                   0000000180035f10     m_nM5NMYJUCkhQa81HtyaWRC.obj
 0003:00000f78       $SG20364                   0000000180035f78     m_nM5NMYJUCkhQa81HtyaWRC.obj
 0003:00000f90       $SG20365                   0000000180035f90     m_nM5NMYJUCkhQa81HtyaWRC.obj
 0003:00000fe0       $SG20367                   0000000180035fe0     m_nM5NMYJUCkhQa81HtyaWRC.obj
 0003:00000ff0       $SG20368                   0000000180035ff0     m_nM5NMYJUCkhQa81HtyaWRC.obj
 0003:00001058       $SG20370                   0000000180036058     m_nM5NMYJUCkhQa81HtyaWRC.obj
 0003:00001070       $SG20371                   0000000180036070     m_nM5NMYJUCkhQa81HtyaWRC.obj
 0003:000010d8       $SG20373                   00000001800360d8     m_nM5NMYJUCkhQa81HtyaWRC.obj
 0003:000010e0       $SG20374                   00000001800360e0     m_nM5NMYJUCkhQa81HtyaWRC.obj
 0003:00001128       $SG20376                   0000000180036128     m_nM5NMYJUCkhQa81HtyaWRC.obj
 0003:00001140       $SG20377                   0000000180036140     m_nM5NMYJUCkhQa81HtyaWRC.obj
 0003:00001190       $SG20379                   0000000180036190     m_nM5NMYJUCkhQa81HtyaWRC.obj
 0003:000011a0       $SG20380                   00000001800361a0     m_nM5NMYJUCkhQa81HtyaWRC.obj
 0003:000011f0       $SG20382                   00000001800361f0     m_nM5NMYJUCkhQa81HtyaWRC.obj
 0003:00001200       $SG20383                   0000000180036200     m_nM5NMYJUCkhQa81HtyaWRC.obj
 0003:00001250       $SG20385                   0000000180036250     m_nM5NMYJUCkhQa81HtyaWRC.obj
 0003:00001260       $SG20386                   0000000180036260     m_nM5NMYJUCkhQa81HtyaWRC.obj
 0003:000012b0       $SG20388                   00000001800362b0     m_nM5NMYJUCkhQa81HtyaWRC.obj
 0003:000012d0       $SG20389                   00000001800362d0     m_nM5NMYJUCkhQa81HtyaWRC.obj
 0003:00001320       $SG20391                   0000000180036320     m_nM5NMYJUCkhQa81HtyaWRC.obj
 0003:00001330       $SG20392                   0000000180036330     m_nM5NMYJUCkhQa81HtyaWRC.obj
 0003:00001380       $SG20394                   0000000180036380     m_nM5NMYJUCkhQa81HtyaWRC.obj
 0003:00001390       $SG20395                   0000000180036390     m_nM5NMYJUCkhQa81HtyaWRC.obj
 0003:000013e0       $SG20397                   00000001800363e0     m_nM5NMYJUCkhQa81HtyaWRC.obj
 0003:00001400       $SG20398                   0000000180036400     m_nM5NMYJUCkhQa81HtyaWRC.obj
 0003:00001480       $SG20400                   0000000180036480     m_nM5NMYJUCkhQa81HtyaWRC.obj
 0003:00001490       $SG20401                   0000000180036490     m_nM5NMYJUCkhQa81HtyaWRC.obj
 0003:000014f8       $SG20403                   00000001800364f8     m_nM5NMYJUCkhQa81HtyaWRC.obj
 0003:00001510       $SG20404                   0000000180036510     m_nM5NMYJUCkhQa81HtyaWRC.obj
 0003:00001578       $SG20406                   0000000180036578     m_nM5NMYJUCkhQa81HtyaWRC.obj
 0003:00001590       $SG20407                   0000000180036590     m_nM5NMYJUCkhQa81HtyaWRC.obj
 0003:000015f8       $SG20409                   00000001800365f8     m_nM5NMYJUCkhQa81HtyaWRC.obj
 0003:00001610       $SG20410                   0000000180036610     m_nM5NMYJUCkhQa81HtyaWRC.obj
 0003:00001678       $SG20412                   0000000180036678     m_nM5NMYJUCkhQa81HtyaWRC.obj
 0003:00001690       $SG20413                   0000000180036690     m_nM5NMYJUCkhQa81HtyaWRC.obj
 0003:000016f8       $SG20415                   00000001800366f8     m_nM5NMYJUCkhQa81HtyaWRC.obj
 0003:00001710       $SG20416                   0000000180036710     m_nM5NMYJUCkhQa81HtyaWRC.obj
 0003:00001778       $SG20418                   0000000180036778     m_nM5NMYJUCkhQa81HtyaWRC.obj
 0003:00001790       $SG20419                   0000000180036790     m_nM5NMYJUCkhQa81HtyaWRC.obj
 0003:000017f8       $SG20421                   00000001800367f8     m_nM5NMYJUCkhQa81HtyaWRC.obj
 0003:00001810       $SG20422                   0000000180036810     m_nM5NMYJUCkhQa81HtyaWRC.obj
 0003:00001878       $SG20424                   0000000180036878     m_nM5NMYJUCkhQa81HtyaWRC.obj
 0003:00001890       $SG20425                   0000000180036890     m_nM5NMYJUCkhQa81HtyaWRC.obj
 0003:000018e8       $SG20427                   00000001800368e8     m_nM5NMYJUCkhQa81HtyaWRC.obj
 0003:00001900       $SG20428                   0000000180036900     m_nM5NMYJUCkhQa81HtyaWRC.obj
 0003:00001968       $SG20430                   0000000180036968     m_nM5NMYJUCkhQa81HtyaWRC.obj
 0003:00001980       $SG20431                   0000000180036980     m_nM5NMYJUCkhQa81HtyaWRC.obj
 0003:000019f0       $SG20433                   00000001800369f0     m_nM5NMYJUCkhQa81HtyaWRC.obj
 0003:00001a00       $SG20434                   0000000180036a00     m_nM5NMYJUCkhQa81HtyaWRC.obj
 0003:00001a60       $SG20436                   0000000180036a60     m_nM5NMYJUCkhQa81HtyaWRC.obj
 0003:00001a70       $SG20437                   0000000180036a70     m_nM5NMYJUCkhQa81HtyaWRC.obj
 0003:00001ad0       $SG20439                   0000000180036ad0     m_nM5NMYJUCkhQa81HtyaWRC.obj
 0003:00001ae0       $SG20440                   0000000180036ae0     m_nM5NMYJUCkhQa81HtyaWRC.obj
 0003:00001b40       $SG20442                   0000000180036b40     m_nM5NMYJUCkhQa81HtyaWRC.obj
 0003:00001b50       $SG20443                   0000000180036b50     m_nM5NMYJUCkhQa81HtyaWRC.obj
 0003:00001ba8       $SG20445                   0000000180036ba8     m_nM5NMYJUCkhQa81HtyaWRC.obj
 0003:00001bc0       $SG20446                   0000000180036bc0     m_nM5NMYJUCkhQa81HtyaWRC.obj
 0003:00001c18       $SG20448                   0000000180036c18     m_nM5NMYJUCkhQa81HtyaWRC.obj
 0003:00001c20       $SG20449                   0000000180036c20     m_nM5NMYJUCkhQa81HtyaWRC.obj
 0003:00001c68       $SG20451                   0000000180036c68     m_nM5NMYJUCkhQa81HtyaWRC.obj
 0003:00001c80       $SG20452                   0000000180036c80     m_nM5NMYJUCkhQa81HtyaWRC.obj
 0003:00001cd8       $SG20454                   0000000180036cd8     m_nM5NMYJUCkhQa81HtyaWRC.obj
 0003:00001cf0       $SG20455                   0000000180036cf0     m_nM5NMYJUCkhQa81HtyaWRC.obj
 0003:00001d48       $SG20457                   0000000180036d48     m_nM5NMYJUCkhQa81HtyaWRC.obj
 0003:00001d50       $SG20458                   0000000180036d50     m_nM5NMYJUCkhQa81HtyaWRC.obj
 0003:00001d98       $SG20460                   0000000180036d98     m_nM5NMYJUCkhQa81HtyaWRC.obj
 0003:00001db0       $SG20461                   0000000180036db0     m_nM5NMYJUCkhQa81HtyaWRC.obj
 0003:00001e0c       $SG20463                   0000000180036e0c     m_nM5NMYJUCkhQa81HtyaWRC.obj
 0003:00001e20       $SG20464                   0000000180036e20     m_nM5NMYJUCkhQa81HtyaWRC.obj
 0003:00001e68       $SG20466                   0000000180036e68     m_nM5NMYJUCkhQa81HtyaWRC.obj
 0003:00001e80       $SG20467                   0000000180036e80     m_nM5NMYJUCkhQa81HtyaWRC.obj
 0003:00001ed0       $SG20469                   0000000180036ed0     m_nM5NMYJUCkhQa81HtyaWRC.obj
 0003:00001ef0       $SG20470                   0000000180036ef0     m_nM5NMYJUCkhQa81HtyaWRC.obj
 0003:00001f40       $SG20472                   0000000180036f40     m_nM5NMYJUCkhQa81HtyaWRC.obj
 0003:00001f50       $SG20473                   0000000180036f50     m_nM5NMYJUCkhQa81HtyaWRC.obj
 0003:00001fb0       $SG20475                   0000000180036fb0     m_nM5NMYJUCkhQa81HtyaWRC.obj
 0003:00001fc0       $SG20476                   0000000180036fc0     m_nM5NMYJUCkhQa81HtyaWRC.obj
 0003:00002018       $SG20478                   0000000180037018     m_nM5NMYJUCkhQa81HtyaWRC.obj
 0003:00002030       $SG20479                   0000000180037030     m_nM5NMYJUCkhQa81HtyaWRC.obj
 0003:00002098       $SG20482                   0000000180037098     m_nM5NMYJUCkhQa81HtyaWRC.obj
 0003:000020b0       $SG20483                   00000001800370b0     m_nM5NMYJUCkhQa81HtyaWRC.obj
 0003:00002118       $SG20485                   0000000180037118     m_nM5NMYJUCkhQa81HtyaWRC.obj
 0003:00002130       $SG20486                   0000000180037130     m_nM5NMYJUCkhQa81HtyaWRC.obj
 0003:00002198       $SG20488                   0000000180037198     m_nM5NMYJUCkhQa81HtyaWRC.obj
 0003:000021b0       $SG20489                   00000001800371b0     m_nM5NMYJUCkhQa81HtyaWRC.obj
 0003:00002218       $SG20491                   0000000180037218     m_nM5NMYJUCkhQa81HtyaWRC.obj
 0003:00002230       $SG20492                   0000000180037230     m_nM5NMYJUCkhQa81HtyaWRC.obj
 0003:000022b8       $SG20494                   00000001800372b8     m_nM5NMYJUCkhQa81HtyaWRC.obj
 0003:000022d0       $SG20495                   00000001800372d0     m_nM5NMYJUCkhQa81HtyaWRC.obj
 0003:00002338       $SG20498                   0000000180037338     m_nM5NMYJUCkhQa81HtyaWRC.obj
 0003:00002350       $SG20499                   0000000180037350     m_nM5NMYJUCkhQa81HtyaWRC.obj
 0003:000023b8       $SG20501                   00000001800373b8     m_nM5NMYJUCkhQa81HtyaWRC.obj
 0003:000023d0       $SG20502                   00000001800373d0     m_nM5NMYJUCkhQa81HtyaWRC.obj
 0003:00002438       $SG20505                   0000000180037438     m_nM5NMYJUCkhQa81HtyaWRC.obj
 0003:00002450       $SG20506                   0000000180037450     m_nM5NMYJUCkhQa81HtyaWRC.obj
 0003:000024b8       $SG20508                   00000001800374b8     m_nM5NMYJUCkhQa81HtyaWRC.obj
 0003:000024d0       $SG20509                   00000001800374d0     m_nM5NMYJUCkhQa81HtyaWRC.obj
 0003:00002538       $SG20512                   0000000180037538     m_nM5NMYJUCkhQa81HtyaWRC.obj
 0003:00002550       $SG20513                   0000000180037550     m_nM5NMYJUCkhQa81HtyaWRC.obj
 0003:000025b8       $SG20515                   00000001800375b8     m_nM5NMYJUCkhQa81HtyaWRC.obj
 0003:000025d0       $SG20516                   00000001800375d0     m_nM5NMYJUCkhQa81HtyaWRC.obj
 0003:00002638       $SG20519                   0000000180037638     m_nM5NMYJUCkhQa81HtyaWRC.obj
 0003:00002650       $SG20520                   0000000180037650     m_nM5NMYJUCkhQa81HtyaWRC.obj
 0003:000026b8       $SG20522                   00000001800376b8     m_nM5NMYJUCkhQa81HtyaWRC.obj
 0003:000026d0       $SG20523                   00000001800376d0     m_nM5NMYJUCkhQa81HtyaWRC.obj
 0003:00002738       $SG20525                   0000000180037738     m_nM5NMYJUCkhQa81HtyaWRC.obj
 0003:00002750       $SG20526                   0000000180037750     m_nM5NMYJUCkhQa81HtyaWRC.obj
 0003:000027b8       $SG20528                   00000001800377b8     m_nM5NMYJUCkhQa81HtyaWRC.obj
 0003:000027d0       $SG20529                   00000001800377d0     m_nM5NMYJUCkhQa81HtyaWRC.obj
 0003:00002838       $SG20531                   0000000180037838     m_nM5NMYJUCkhQa81HtyaWRC.obj
 0003:00002850       $SG20532                   0000000180037850     m_nM5NMYJUCkhQa81HtyaWRC.obj
 0003:000028b8       $SG20534                   00000001800378b8     m_nM5NMYJUCkhQa81HtyaWRC.obj
 0003:000028d0       $SG20535                   00000001800378d0     m_nM5NMYJUCkhQa81HtyaWRC.obj
 0003:00002958       $SG20537                   0000000180037958     m_nM5NMYJUCkhQa81HtyaWRC.obj
 0003:00002970       $SG20538                   0000000180037970     m_nM5NMYJUCkhQa81HtyaWRC.obj
 0003:000029f8       $SG20541                   00000001800379f8     m_nM5NMYJUCkhQa81HtyaWRC.obj
 0003:00002a10       $SG20542                   0000000180037a10     m_nM5NMYJUCkhQa81HtyaWRC.obj
 0003:00002a78       $SG20545                   0000000180037a78     m_nM5NMYJUCkhQa81HtyaWRC.obj
 0003:00002a90       $SG20546                   0000000180037a90     m_nM5NMYJUCkhQa81HtyaWRC.obj
 0003:00002af8       $SG20549                   0000000180037af8     m_nM5NMYJUCkhQa81HtyaWRC.obj
 0003:00002b10       $SG20550                   0000000180037b10     m_nM5NMYJUCkhQa81HtyaWRC.obj
 0003:00002b78       $SG20553                   0000000180037b78     m_nM5NMYJUCkhQa81HtyaWRC.obj
 0003:00002b90       $SG20554                   0000000180037b90     m_nM5NMYJUCkhQa81HtyaWRC.obj
 0003:00002bf8       $SG20556                   0000000180037bf8     m_nM5NMYJUCkhQa81HtyaWRC.obj
 0003:00002c10       $SG20557                   0000000180037c10     m_nM5NMYJUCkhQa81HtyaWRC.obj
 0003:00002c78       $SG20560                   0000000180037c78     m_nM5NMYJUCkhQa81HtyaWRC.obj
 0003:00002c90       $SG20561                   0000000180037c90     m_nM5NMYJUCkhQa81HtyaWRC.obj
 0003:00002cf8       $SG20564                   0000000180037cf8     m_nM5NMYJUCkhQa81HtyaWRC.obj
 0003:00002d10       $SG20565                   0000000180037d10     m_nM5NMYJUCkhQa81HtyaWRC.obj
 0003:00002d78       $SG20567                   0000000180037d78     m_nM5NMYJUCkhQa81HtyaWRC.obj
 0003:00002d90       $SG20568                   0000000180037d90     m_nM5NMYJUCkhQa81HtyaWRC.obj
 0003:00002df8       $SG20570                   0000000180037df8     m_nM5NMYJUCkhQa81HtyaWRC.obj
 0003:00002e00       $SG20571                   0000000180037e00     m_nM5NMYJUCkhQa81HtyaWRC.obj
 0003:00002e48       $SG20574                   0000000180037e48     m_nM5NMYJUCkhQa81HtyaWRC.obj
 0003:00002e60       $SG20575                   0000000180037e60     m_nM5NMYJUCkhQa81HtyaWRC.obj
 0003:00002ec8       $SG20578                   0000000180037ec8     m_nM5NMYJUCkhQa81HtyaWRC.obj
 0003:00002ee0       $SG20579                   0000000180037ee0     m_nM5NMYJUCkhQa81HtyaWRC.obj
 0003:00002f48       $SG20581                   0000000180037f48     m_nM5NMYJUCkhQa81HtyaWRC.obj
 0003:00002f60       $SG20582                   0000000180037f60     m_nM5NMYJUCkhQa81HtyaWRC.obj
 0003:00002fc8       $SG20585                   0000000180037fc8     m_nM5NMYJUCkhQa81HtyaWRC.obj
 0003:00002fe0       $SG20586                   0000000180037fe0     m_nM5NMYJUCkhQa81HtyaWRC.obj
 0003:00003048       $SG20588                   0000000180038048     m_nM5NMYJUCkhQa81HtyaWRC.obj
 0003:00003060       $SG20589                   0000000180038060     m_nM5NMYJUCkhQa81HtyaWRC.obj
 0003:000030c8       $SG20591                   00000001800380c8     m_nM5NMYJUCkhQa81HtyaWRC.obj
 0003:000030e0       $SG20592                   00000001800380e0     m_nM5NMYJUCkhQa81HtyaWRC.obj
 0003:00003148       $SG20595                   0000000180038148     m_nM5NMYJUCkhQa81HtyaWRC.obj
 0003:00003160       $SG20596                   0000000180038160     m_nM5NMYJUCkhQa81HtyaWRC.obj
 0003:000031c8       $SG20599                   00000001800381c8     m_nM5NMYJUCkhQa81HtyaWRC.obj
 0003:000031e0       $SG20600                   00000001800381e0     m_nM5NMYJUCkhQa81HtyaWRC.obj
 0003:00003248       $SG20603                   0000000180038248     m_nM5NMYJUCkhQa81HtyaWRC.obj
 0003:00003260       $SG20604                   0000000180038260     m_nM5NMYJUCkhQa81HtyaWRC.obj
 0003:000032c8       $SG20606                   00000001800382c8     m_nM5NMYJUCkhQa81HtyaWRC.obj
 0003:000032e0       $SG20607                   00000001800382e0     m_nM5NMYJUCkhQa81HtyaWRC.obj
 0003:00003348       $SG20610                   0000000180038348     m_nM5NMYJUCkhQa81HtyaWRC.obj
 0003:00003360       $SG20611                   0000000180038360     m_nM5NMYJUCkhQa81HtyaWRC.obj
 0003:000033c8       $SG20614                   00000001800383c8     m_nM5NMYJUCkhQa81HtyaWRC.obj
 0003:000033e0       $SG20615                   00000001800383e0     m_nM5NMYJUCkhQa81HtyaWRC.obj
 0003:00003448       $SG20617                   0000000180038448     m_nM5NMYJUCkhQa81HtyaWRC.obj
 0003:00003460       $SG20618                   0000000180038460     m_nM5NMYJUCkhQa81HtyaWRC.obj
 0003:000034c8       $SG20621                   00000001800384c8     m_nM5NMYJUCkhQa81HtyaWRC.obj
 0003:000034e0       $SG20622                   00000001800384e0     m_nM5NMYJUCkhQa81HtyaWRC.obj
 0003:00003548       $SG20625                   0000000180038548     m_nM5NMYJUCkhQa81HtyaWRC.obj
 0003:00003560       $SG20626                   0000000180038560     m_nM5NMYJUCkhQa81HtyaWRC.obj
 0003:000035c8       $SG20628                   00000001800385c8     m_nM5NMYJUCkhQa81HtyaWRC.obj
 0003:000035e0       $SG20629                   00000001800385e0     m_nM5NMYJUCkhQa81HtyaWRC.obj
 0003:00003638       $SG20631                   0000000180038638     m_nM5NMYJUCkhQa81HtyaWRC.obj
 0003:00003650       $SG20632                   0000000180038650     m_nM5NMYJUCkhQa81HtyaWRC.obj
 0003:000036b0       $SG20634                   00000001800386b0     m_nM5NMYJUCkhQa81HtyaWRC.obj
 0003:000036c0       $SG20635                   00000001800386c0     m_nM5NMYJUCkhQa81HtyaWRC.obj
 0003:0000371c       $SG20637                   000000018003871c     m_nM5NMYJUCkhQa81HtyaWRC.obj
 0003:00003730       $SG20638                   0000000180038730     m_nM5NMYJUCkhQa81HtyaWRC.obj
 0003:00003790       $SG20640                   0000000180038790     m_nM5NMYJUCkhQa81HtyaWRC.obj
 0003:000037a0       $SG20641                   00000001800387a0     m_nM5NMYJUCkhQa81HtyaWRC.obj
 0003:000037e8       $SG20643                   00000001800387e8     m_nM5NMYJUCkhQa81HtyaWRC.obj
 0003:00003800       $SG20644                   0000000180038800     m_nM5NMYJUCkhQa81HtyaWRC.obj
 0003:00003858       $SG20646                   0000000180038858     m_nM5NMYJUCkhQa81HtyaWRC.obj
 0003:00003870       $SG20647                   0000000180038870     m_nM5NMYJUCkhQa81HtyaWRC.obj
 0003:000038cc       $SG20649                   00000001800388cc     m_nM5NMYJUCkhQa81HtyaWRC.obj
 0003:000038d0       $SG20650                   00000001800388d0     m_nM5NMYJUCkhQa81HtyaWRC.obj
 0003:00003918       $SG20652                   0000000180038918     m_nM5NMYJUCkhQa81HtyaWRC.obj
 0003:00003930       $SG20653                   0000000180038930     m_nM5NMYJUCkhQa81HtyaWRC.obj
 0003:00003980       $SG20655                   0000000180038980     m_nM5NMYJUCkhQa81HtyaWRC.obj
 0003:000039a0       $SG20656                   00000001800389a0     m_nM5NMYJUCkhQa81HtyaWRC.obj
 0003:000039f0       $SG20658                   00000001800389f0     m_nM5NMYJUCkhQa81HtyaWRC.obj
 0003:00003a10       $SG20659                   0000000180038a10     m_nM5NMYJUCkhQa81HtyaWRC.obj
 0003:00003a68       $SG20661                   0000000180038a68     m_nM5NMYJUCkhQa81HtyaWRC.obj
 0003:00003a80       $SG20662                   0000000180038a80     m_nM5NMYJUCkhQa81HtyaWRC.obj
 0003:00003ad8       emlrtRSI                   0000000180038ad8     m_nM5NMYJUCkhQa81HtyaWRC.obj
 0003:00003af0       b_emlrtRSI                 0000000180038af0     m_nM5NMYJUCkhQa81HtyaWRC.obj
 0003:00003b08       c_emlrtRSI                 0000000180038b08     m_nM5NMYJUCkhQa81HtyaWRC.obj
 0003:00003b20       d_emlrtRSI                 0000000180038b20     m_nM5NMYJUCkhQa81HtyaWRC.obj
 0003:00003b38       e_emlrtRSI                 0000000180038b38     m_nM5NMYJUCkhQa81HtyaWRC.obj
 0003:00003b50       f_emlrtRSI                 0000000180038b50     m_nM5NMYJUCkhQa81HtyaWRC.obj
 0003:00003b68       g_emlrtRSI                 0000000180038b68     m_nM5NMYJUCkhQa81HtyaWRC.obj
 0003:00003b80       h_emlrtRSI                 0000000180038b80     m_nM5NMYJUCkhQa81HtyaWRC.obj
 0003:00003b98       i_emlrtRSI                 0000000180038b98     m_nM5NMYJUCkhQa81HtyaWRC.obj
 0003:00003bb0       j_emlrtRSI                 0000000180038bb0     m_nM5NMYJUCkhQa81HtyaWRC.obj
 0003:00003bc8       k_emlrtRSI                 0000000180038bc8     m_nM5NMYJUCkhQa81HtyaWRC.obj
 0003:00003be0       l_emlrtRSI                 0000000180038be0     m_nM5NMYJUCkhQa81HtyaWRC.obj
 0003:00003bf8       m_emlrtRSI                 0000000180038bf8     m_nM5NMYJUCkhQa81HtyaWRC.obj
 0003:00003c10       n_emlrtRSI                 0000000180038c10     m_nM5NMYJUCkhQa81HtyaWRC.obj
 0003:00003c28       o_emlrtRSI                 0000000180038c28     m_nM5NMYJUCkhQa81HtyaWRC.obj
 0003:00003c40       p_emlrtRSI                 0000000180038c40     m_nM5NMYJUCkhQa81HtyaWRC.obj
 0003:00003c58       q_emlrtRSI                 0000000180038c58     m_nM5NMYJUCkhQa81HtyaWRC.obj
 0003:00003c70       r_emlrtRSI                 0000000180038c70     m_nM5NMYJUCkhQa81HtyaWRC.obj
 0003:00003c88       s_emlrtRSI                 0000000180038c88     m_nM5NMYJUCkhQa81HtyaWRC.obj
 0003:00003ca0       t_emlrtRSI                 0000000180038ca0     m_nM5NMYJUCkhQa81HtyaWRC.obj
 0003:00003cb8       u_emlrtRSI                 0000000180038cb8     m_nM5NMYJUCkhQa81HtyaWRC.obj
 0003:00003cd0       v_emlrtRSI                 0000000180038cd0     m_nM5NMYJUCkhQa81HtyaWRC.obj
 0003:00003ce8       w_emlrtRSI                 0000000180038ce8     m_nM5NMYJUCkhQa81HtyaWRC.obj
 0003:00003d00       x_emlrtRSI                 0000000180038d00     m_nM5NMYJUCkhQa81HtyaWRC.obj
 0003:00003d18       y_emlrtRSI                 0000000180038d18     m_nM5NMYJUCkhQa81HtyaWRC.obj
 0003:00003d30       ab_emlrtRSI                0000000180038d30     m_nM5NMYJUCkhQa81HtyaWRC.obj
 0003:00003d48       bb_emlrtRSI                0000000180038d48     m_nM5NMYJUCkhQa81HtyaWRC.obj
 0003:00003d60       cb_emlrtRSI                0000000180038d60     m_nM5NMYJUCkhQa81HtyaWRC.obj
 0003:00003d78       db_emlrtRSI                0000000180038d78     m_nM5NMYJUCkhQa81HtyaWRC.obj
 0003:00003d90       eb_emlrtRSI                0000000180038d90     m_nM5NMYJUCkhQa81HtyaWRC.obj
 0003:00003da8       fb_emlrtRSI                0000000180038da8     m_nM5NMYJUCkhQa81HtyaWRC.obj
 0003:00003dc0       gb_emlrtRSI                0000000180038dc0     m_nM5NMYJUCkhQa81HtyaWRC.obj
 0003:00003dd8       hb_emlrtRSI                0000000180038dd8     m_nM5NMYJUCkhQa81HtyaWRC.obj
 0003:00003df0       ib_emlrtRSI                0000000180038df0     m_nM5NMYJUCkhQa81HtyaWRC.obj
 0003:00003e08       jb_emlrtRSI                0000000180038e08     m_nM5NMYJUCkhQa81HtyaWRC.obj
 0003:00003e20       kb_emlrtRSI                0000000180038e20     m_nM5NMYJUCkhQa81HtyaWRC.obj
 0003:00003e38       lb_emlrtRSI                0000000180038e38     m_nM5NMYJUCkhQa81HtyaWRC.obj
 0003:00003e50       mb_emlrtRSI                0000000180038e50     m_nM5NMYJUCkhQa81HtyaWRC.obj
 0003:00003e68       nb_emlrtRSI                0000000180038e68     m_nM5NMYJUCkhQa81HtyaWRC.obj
 0003:00003e80       ob_emlrtRSI                0000000180038e80     m_nM5NMYJUCkhQa81HtyaWRC.obj
 0003:00003e98       pb_emlrtRSI                0000000180038e98     m_nM5NMYJUCkhQa81HtyaWRC.obj
 0003:00003eb0       qb_emlrtRSI                0000000180038eb0     m_nM5NMYJUCkhQa81HtyaWRC.obj
 0003:00003ec8       rb_emlrtRSI                0000000180038ec8     m_nM5NMYJUCkhQa81HtyaWRC.obj
 0003:00003ee0       sb_emlrtRSI                0000000180038ee0     m_nM5NMYJUCkhQa81HtyaWRC.obj
 0003:00003ef8       tb_emlrtRSI                0000000180038ef8     m_nM5NMYJUCkhQa81HtyaWRC.obj
 0003:00003f10       ub_emlrtRSI                0000000180038f10     m_nM5NMYJUCkhQa81HtyaWRC.obj
 0003:00003f28       vb_emlrtRSI                0000000180038f28     m_nM5NMYJUCkhQa81HtyaWRC.obj
 0003:00003f40       wb_emlrtRSI                0000000180038f40     m_nM5NMYJUCkhQa81HtyaWRC.obj
 0003:00003f58       xb_emlrtRSI                0000000180038f58     m_nM5NMYJUCkhQa81HtyaWRC.obj
 0003:00003f70       yb_emlrtRSI                0000000180038f70     m_nM5NMYJUCkhQa81HtyaWRC.obj
 0003:00003f88       ac_emlrtRSI                0000000180038f88     m_nM5NMYJUCkhQa81HtyaWRC.obj
 0003:00003fa0       bc_emlrtRSI                0000000180038fa0     m_nM5NMYJUCkhQa81HtyaWRC.obj
 0003:00003fb8       cc_emlrtRSI                0000000180038fb8     m_nM5NMYJUCkhQa81HtyaWRC.obj
 0003:00003fd0       dc_emlrtRSI                0000000180038fd0     m_nM5NMYJUCkhQa81HtyaWRC.obj
 0003:00003fe8       ec_emlrtRSI                0000000180038fe8     m_nM5NMYJUCkhQa81HtyaWRC.obj
 0003:00004000       fc_emlrtRSI                0000000180039000     m_nM5NMYJUCkhQa81HtyaWRC.obj
 0003:00004018       gc_emlrtRSI                0000000180039018     m_nM5NMYJUCkhQa81HtyaWRC.obj
 0003:00004030       hc_emlrtRSI                0000000180039030     m_nM5NMYJUCkhQa81HtyaWRC.obj
 0003:00004048       emlrtMCI                   0000000180039048     m_nM5NMYJUCkhQa81HtyaWRC.obj
 0003:00004060       b_emlrtMCI                 0000000180039060     m_nM5NMYJUCkhQa81HtyaWRC.obj
 0003:00004078       c_emlrtMCI                 0000000180039078     m_nM5NMYJUCkhQa81HtyaWRC.obj
 0003:00004090       d_emlrtMCI                 0000000180039090     m_nM5NMYJUCkhQa81HtyaWRC.obj
 0003:000040a8       e_emlrtMCI                 00000001800390a8     m_nM5NMYJUCkhQa81HtyaWRC.obj
 0003:000040c0       g_emlrtMCI                 00000001800390c0     m_nM5NMYJUCkhQa81HtyaWRC.obj
 0003:000040d8       h_emlrtMCI                 00000001800390d8     m_nM5NMYJUCkhQa81HtyaWRC.obj
 0003:000040f0       i_emlrtMCI                 00000001800390f0     m_nM5NMYJUCkhQa81HtyaWRC.obj
 0003:00004108       j_emlrtMCI                 0000000180039108     m_nM5NMYJUCkhQa81HtyaWRC.obj
 0003:00004120       k_emlrtMCI                 0000000180039120     m_nM5NMYJUCkhQa81HtyaWRC.obj
 0003:00004138       l_emlrtMCI                 0000000180039138     m_nM5NMYJUCkhQa81HtyaWRC.obj
 0003:00004150       m_emlrtMCI                 0000000180039150     m_nM5NMYJUCkhQa81HtyaWRC.obj
 0003:00004168       n_emlrtMCI                 0000000180039168     m_nM5NMYJUCkhQa81HtyaWRC.obj
 0003:00004180       emlrtRTEI                  0000000180039180     m_nM5NMYJUCkhQa81HtyaWRC.obj
 0003:00004198       emlrtBCI                   0000000180039198     m_nM5NMYJUCkhQa81HtyaWRC.obj
 0003:000041c8       emlrtDCI                   00000001800391c8     m_nM5NMYJUCkhQa81HtyaWRC.obj
 0003:000041e8       b_emlrtDCI                 00000001800391e8     m_nM5NMYJUCkhQa81HtyaWRC.obj
 0003:00004208       emlrtECI                   0000000180039208     m_nM5NMYJUCkhQa81HtyaWRC.obj
 0003:00004228       b_emlrtRTEI                0000000180039228     m_nM5NMYJUCkhQa81HtyaWRC.obj
 0003:00004240       b_emlrtBCI                 0000000180039240     m_nM5NMYJUCkhQa81HtyaWRC.obj
 0003:00004270       c_emlrtDCI                 0000000180039270     m_nM5NMYJUCkhQa81HtyaWRC.obj
 0003:00004290       c_emlrtBCI                 0000000180039290     m_nM5NMYJUCkhQa81HtyaWRC.obj
 0003:000042c0       d_emlrtDCI                 00000001800392c0     m_nM5NMYJUCkhQa81HtyaWRC.obj
 0003:000042e0       d_emlrtBCI                 00000001800392e0     m_nM5NMYJUCkhQa81HtyaWRC.obj
 0003:00004310       e_emlrtDCI                 0000000180039310     m_nM5NMYJUCkhQa81HtyaWRC.obj
 0003:00004330       e_emlrtBCI                 0000000180039330     m_nM5NMYJUCkhQa81HtyaWRC.obj
 0003:00004360       b_emlrtECI                 0000000180039360     m_nM5NMYJUCkhQa81HtyaWRC.obj
 0003:00004380       c_emlrtRTEI                0000000180039380     m_nM5NMYJUCkhQa81HtyaWRC.obj
 0003:00004398       f_emlrtDCI                 0000000180039398     m_nM5NMYJUCkhQa81HtyaWRC.obj
 0003:000043b8       g_emlrtDCI                 00000001800393b8     m_nM5NMYJUCkhQa81HtyaWRC.obj
 0003:000043d8       h_emlrtDCI                 00000001800393d8     m_nM5NMYJUCkhQa81HtyaWRC.obj
 0003:000043f8       i_emlrtDCI                 00000001800393f8     m_nM5NMYJUCkhQa81HtyaWRC.obj
 0003:00004418       f_emlrtBCI                 0000000180039418     m_nM5NMYJUCkhQa81HtyaWRC.obj
 0003:00004448       g_emlrtBCI                 0000000180039448     m_nM5NMYJUCkhQa81HtyaWRC.obj
 0003:00004478       h_emlrtBCI                 0000000180039478     m_nM5NMYJUCkhQa81HtyaWRC.obj
 0003:000044a8       i_emlrtBCI                 00000001800394a8     m_nM5NMYJUCkhQa81HtyaWRC.obj
 0003:000044d8       j_emlrtDCI                 00000001800394d8     m_nM5NMYJUCkhQa81HtyaWRC.obj
 0003:000044f8       j_emlrtBCI                 00000001800394f8     m_nM5NMYJUCkhQa81HtyaWRC.obj
 0003:00004528       k_emlrtBCI                 0000000180039528     m_nM5NMYJUCkhQa81HtyaWRC.obj
 0003:00004558       k_emlrtDCI                 0000000180039558     m_nM5NMYJUCkhQa81HtyaWRC.obj
 0003:00004578       l_emlrtDCI                 0000000180039578     m_nM5NMYJUCkhQa81HtyaWRC.obj
 0003:00004598       l_emlrtBCI                 0000000180039598     m_nM5NMYJUCkhQa81HtyaWRC.obj
 0003:000045c8       m_emlrtBCI                 00000001800395c8     m_nM5NMYJUCkhQa81HtyaWRC.obj
 0003:000045f8       m_emlrtDCI                 00000001800395f8     m_nM5NMYJUCkhQa81HtyaWRC.obj
 0003:00004618       n_emlrtBCI                 0000000180039618     m_nM5NMYJUCkhQa81HtyaWRC.obj
 0003:00004648       n_emlrtDCI                 0000000180039648     m_nM5NMYJUCkhQa81HtyaWRC.obj
 0003:00004668       d_emlrtRTEI                0000000180039668     m_nM5NMYJUCkhQa81HtyaWRC.obj
 0003:00004680       o_emlrtBCI                 0000000180039680     m_nM5NMYJUCkhQa81HtyaWRC.obj
 0003:000046b0       p_emlrtBCI                 00000001800396b0     m_nM5NMYJUCkhQa81HtyaWRC.obj
 0003:000046e0       q_emlrtBCI                 00000001800396e0     m_nM5NMYJUCkhQa81HtyaWRC.obj
 0003:00004710       o_emlrtDCI                 0000000180039710     m_nM5NMYJUCkhQa81HtyaWRC.obj
 0003:00004730       r_emlrtBCI                 0000000180039730     m_nM5NMYJUCkhQa81HtyaWRC.obj
 0003:00004760       s_emlrtBCI                 0000000180039760     m_nM5NMYJUCkhQa81HtyaWRC.obj
 0003:00004790       e_emlrtRTEI                0000000180039790     m_nM5NMYJUCkhQa81HtyaWRC.obj
 0003:000047a8       t_emlrtBCI                 00000001800397a8     m_nM5NMYJUCkhQa81HtyaWRC.obj
 0003:000047d8       u_emlrtBCI                 00000001800397d8     m_nM5NMYJUCkhQa81HtyaWRC.obj
 0003:00004808       ic_emlrtRSI                0000000180039808     m_nM5NMYJUCkhQa81HtyaWRC.obj
 0003:00004820       jc_emlrtRSI                0000000180039820     m_nM5NMYJUCkhQa81HtyaWRC.obj
 0003:00004838       kc_emlrtRSI                0000000180039838     m_nM5NMYJUCkhQa81HtyaWRC.obj
 0003:00004850       lc_emlrtRSI                0000000180039850     m_nM5NMYJUCkhQa81HtyaWRC.obj
 0003:00004868       mc_emlrtRSI                0000000180039868     m_nM5NMYJUCkhQa81HtyaWRC.obj
 0003:00004880       nc_emlrtRSI                0000000180039880     m_nM5NMYJUCkhQa81HtyaWRC.obj
 0003:00004898       oc_emlrtRSI                0000000180039898     m_nM5NMYJUCkhQa81HtyaWRC.obj
 0003:000048b0       pc_emlrtRSI                00000001800398b0     m_nM5NMYJUCkhQa81HtyaWRC.obj
 0003:000048c8       qc_emlrtRSI                00000001800398c8     m_nM5NMYJUCkhQa81HtyaWRC.obj
 0003:000048e0       rc_emlrtRSI                00000001800398e0     m_nM5NMYJUCkhQa81HtyaWRC.obj
 0003:000048f8       sc_emlrtRSI                00000001800398f8     m_nM5NMYJUCkhQa81HtyaWRC.obj
 0003:00004910       tc_emlrtRSI                0000000180039910     m_nM5NMYJUCkhQa81HtyaWRC.obj
 0003:00004928       $SG20852                   0000000180039928     m_nM5NMYJUCkhQa81HtyaWRC.obj
 0003:00004940       $SG20853                   0000000180039940     m_nM5NMYJUCkhQa81HtyaWRC.obj
 0003:00004968       ?b_u@?1??SystemCore_setup@@9@9 0000000180039968     m_nM5NMYJUCkhQa81HtyaWRC.obj
 0003:0000499c       ?d_u@?1??SystemCore_setup@@9@9 000000018003999c     m_nM5NMYJUCkhQa81HtyaWRC.obj
 0003:000049a8       ?iv@?1??GetJacobianBlock_setupImpl@@9@9 00000001800399a8     m_nM5NMYJUCkhQa81HtyaWRC.obj
 0003:000049b8       ?b_bname@?1??RigidBodyTree_defaultInitializeBodiesCellArray@@9@9 00000001800399b8     m_nM5NMYJUCkhQa81HtyaWRC.obj
 0003:000049c8       ?bname@?1??RigidBodyTree_defaultInitializeBodiesCellArray@@9@9 00000001800399c8     m_nM5NMYJUCkhQa81HtyaWRC.obj
 0003:000049d8       ?c_bname@?1??RigidBodyTree_defaultInitializeBodiesCellArray@@9@9 00000001800399d8     m_nM5NMYJUCkhQa81HtyaWRC.obj
 0003:000049e8       ?d_bname@?1??RigidBodyTree_defaultInitializeBodiesCellArray@@9@9 00000001800399e8     m_nM5NMYJUCkhQa81HtyaWRC.obj
 0003:000049f8       ?e_bname@?1??RigidBodyTree_defaultInitializeBodiesCellArray@@9@9 00000001800399f8     m_nM5NMYJUCkhQa81HtyaWRC.obj
 0003:00004a04       ?cv@?1??RigidBodyTree_defaultInitializeBodiesCellArray@@9@9 0000000180039a04     m_nM5NMYJUCkhQa81HtyaWRC.obj
 0003:00004a0c       ?iv@?1??RigidBodyTree_defaultInitializeBodiesCellArray@@9@9 0000000180039a0c     m_nM5NMYJUCkhQa81HtyaWRC.obj
 0003:00004a14       ?iv1@?1??RigidBodyTree_defaultInitializeBodiesCellArray@@9@9 0000000180039a14     m_nM5NMYJUCkhQa81HtyaWRC.obj
 0003:00004a1c       ?iv2@?1??RigidBodyTree_defaultInitializeBodiesCellArray@@9@9 0000000180039a1c     m_nM5NMYJUCkhQa81HtyaWRC.obj
 0003:00004a20       ?cv@?1??b_strcmp@@9@9      0000000180039a20     m_nM5NMYJUCkhQa81HtyaWRC.obj
 0003:00004a28       ?cv@?1??c_strcmp@@9@9      0000000180039a28     m_nM5NMYJUCkhQa81HtyaWRC.obj
 0003:00004a40       ?dv@?1??RigidBody_RigidBody@@9@9 0000000180039a40     m_nM5NMYJUCkhQa81HtyaWRC.obj
 0003:00004ac0       ?cv1@?1??RigidBody_RigidBody@@9@9 0000000180039ac0     m_nM5NMYJUCkhQa81HtyaWRC.obj
 0003:00004ac8       ?cv@?1??RigidBody_RigidBody@@9@9 0000000180039ac8     m_nM5NMYJUCkhQa81HtyaWRC.obj
 0003:00004ad0       ?iv3@?1??RigidBody_RigidBody@@9@9 0000000180039ad0     m_nM5NMYJUCkhQa81HtyaWRC.obj
 0003:00004ae0       ?iv@?1??RigidBody_RigidBody@@9@9 0000000180039ae0     m_nM5NMYJUCkhQa81HtyaWRC.obj
 0003:00004ae8       ?iv1@?1??RigidBody_RigidBody@@9@9 0000000180039ae8     m_nM5NMYJUCkhQa81HtyaWRC.obj
 0003:00004af0       ?iv4@?1??RigidBody_RigidBody@@9@9 0000000180039af0     m_nM5NMYJUCkhQa81HtyaWRC.obj
 0003:00004af8       ?iv2@?1??RigidBody_RigidBody@@9@9 0000000180039af8     m_nM5NMYJUCkhQa81HtyaWRC.obj
 0003:00004afc       ?iv5@?1??RigidBody_RigidBody@@9@9 0000000180039afc     m_nM5NMYJUCkhQa81HtyaWRC.obj
 0003:00004b00       ?dv@?1??b_RigidBody_RigidBody@@9@9 0000000180039b00     m_nM5NMYJUCkhQa81HtyaWRC.obj
 0003:00004b80       ?cv1@?1??b_RigidBody_RigidBody@@9@9 0000000180039b80     m_nM5NMYJUCkhQa81HtyaWRC.obj
 0003:00004b88       ?cv@?1??b_RigidBody_RigidBody@@9@9 0000000180039b88     m_nM5NMYJUCkhQa81HtyaWRC.obj
 0003:00004b90       ?iv3@?1??b_RigidBody_RigidBody@@9@9 0000000180039b90     m_nM5NMYJUCkhQa81HtyaWRC.obj
 0003:00004ba0       ?iv@?1??b_RigidBody_RigidBody@@9@9 0000000180039ba0     m_nM5NMYJUCkhQa81HtyaWRC.obj
 0003:00004ba8       ?iv1@?1??b_RigidBody_RigidBody@@9@9 0000000180039ba8     m_nM5NMYJUCkhQa81HtyaWRC.obj
 0003:00004bb0       ?iv4@?1??b_RigidBody_RigidBody@@9@9 0000000180039bb0     m_nM5NMYJUCkhQa81HtyaWRC.obj
 0003:00004bb8       ?iv2@?1??b_RigidBody_RigidBody@@9@9 0000000180039bb8     m_nM5NMYJUCkhQa81HtyaWRC.obj
 0003:00004bbc       ?iv5@?1??b_RigidBody_RigidBody@@9@9 0000000180039bbc     m_nM5NMYJUCkhQa81HtyaWRC.obj
 0003:00004bc0       ?dv@?1??c_RigidBody_RigidBody@@9@9 0000000180039bc0     m_nM5NMYJUCkhQa81HtyaWRC.obj
 0003:00004c40       ?cv1@?1??c_RigidBody_RigidBody@@9@9 0000000180039c40     m_nM5NMYJUCkhQa81HtyaWRC.obj
 0003:00004c48       ?cv@?1??c_RigidBody_RigidBody@@9@9 0000000180039c48     m_nM5NMYJUCkhQa81HtyaWRC.obj
 0003:00004c50       ?iv3@?1??c_RigidBody_RigidBody@@9@9 0000000180039c50     m_nM5NMYJUCkhQa81HtyaWRC.obj
 0003:00004c60       ?iv@?1??c_RigidBody_RigidBody@@9@9 0000000180039c60     m_nM5NMYJUCkhQa81HtyaWRC.obj
 0003:00004c68       ?iv1@?1??c_RigidBody_RigidBody@@9@9 0000000180039c68     m_nM5NMYJUCkhQa81HtyaWRC.obj
 0003:00004c70       ?iv4@?1??c_RigidBody_RigidBody@@9@9 0000000180039c70     m_nM5NMYJUCkhQa81HtyaWRC.obj
 0003:00004c78       ?iv2@?1??c_RigidBody_RigidBody@@9@9 0000000180039c78     m_nM5NMYJUCkhQa81HtyaWRC.obj
 0003:00004c7c       ?iv5@?1??c_RigidBody_RigidBody@@9@9 0000000180039c7c     m_nM5NMYJUCkhQa81HtyaWRC.obj
 0003:00004c80       ?dv@?1??d_RigidBody_RigidBody@@9@9 0000000180039c80     m_nM5NMYJUCkhQa81HtyaWRC.obj
 0003:00004d00       ?cv1@?1??d_RigidBody_RigidBody@@9@9 0000000180039d00     m_nM5NMYJUCkhQa81HtyaWRC.obj
 0003:00004d08       ?cv@?1??d_RigidBody_RigidBody@@9@9 0000000180039d08     m_nM5NMYJUCkhQa81HtyaWRC.obj
 0003:00004d10       ?iv3@?1??d_RigidBody_RigidBody@@9@9 0000000180039d10     m_nM5NMYJUCkhQa81HtyaWRC.obj
 0003:00004d20       ?iv@?1??d_RigidBody_RigidBody@@9@9 0000000180039d20     m_nM5NMYJUCkhQa81HtyaWRC.obj
 0003:00004d28       ?iv1@?1??d_RigidBody_RigidBody@@9@9 0000000180039d28     m_nM5NMYJUCkhQa81HtyaWRC.obj
 0003:00004d30       ?iv4@?1??d_RigidBody_RigidBody@@9@9 0000000180039d30     m_nM5NMYJUCkhQa81HtyaWRC.obj
 0003:00004d38       ?iv2@?1??d_RigidBody_RigidBody@@9@9 0000000180039d38     m_nM5NMYJUCkhQa81HtyaWRC.obj
 0003:00004d3c       ?iv5@?1??d_RigidBody_RigidBody@@9@9 0000000180039d3c     m_nM5NMYJUCkhQa81HtyaWRC.obj
 0003:00004d40       ?dv@?1??e_RigidBody_RigidBody@@9@9 0000000180039d40     m_nM5NMYJUCkhQa81HtyaWRC.obj
 0003:00004dc0       ?cv@?1??e_RigidBody_RigidBody@@9@9 0000000180039dc0     m_nM5NMYJUCkhQa81HtyaWRC.obj
 0003:00004dd0       ?cv1@?1??e_RigidBody_RigidBody@@9@9 0000000180039dd0     m_nM5NMYJUCkhQa81HtyaWRC.obj
 0003:00004dd8       ?iv3@?1??e_RigidBody_RigidBody@@9@9 0000000180039dd8     m_nM5NMYJUCkhQa81HtyaWRC.obj
 0003:00004de8       ?iv@?1??e_RigidBody_RigidBody@@9@9 0000000180039de8     m_nM5NMYJUCkhQa81HtyaWRC.obj
 0003:00004df0       ?iv1@?1??e_RigidBody_RigidBody@@9@9 0000000180039df0     m_nM5NMYJUCkhQa81HtyaWRC.obj
 0003:00004df8       ?iv4@?1??e_RigidBody_RigidBody@@9@9 0000000180039df8     m_nM5NMYJUCkhQa81HtyaWRC.obj
 0003:00004e00       ?iv2@?1??e_RigidBody_RigidBody@@9@9 0000000180039e00     m_nM5NMYJUCkhQa81HtyaWRC.obj
 0003:00004e04       ?iv5@?1??e_RigidBody_RigidBody@@9@9 0000000180039e04     m_nM5NMYJUCkhQa81HtyaWRC.obj
 0003:00004e08       ?cv@?1??f_RigidBody_RigidBody@@9@9 0000000180039e08     m_nM5NMYJUCkhQa81HtyaWRC.obj
 0003:00004e14       ?cv1@?1??f_RigidBody_RigidBody@@9@9 0000000180039e14     m_nM5NMYJUCkhQa81HtyaWRC.obj
 0003:00004e1c       ?iv@?1??f_RigidBody_RigidBody@@9@9 0000000180039e1c     m_nM5NMYJUCkhQa81HtyaWRC.obj
 0003:00004e24       ?iv1@?1??f_RigidBody_RigidBody@@9@9 0000000180039e24     m_nM5NMYJUCkhQa81HtyaWRC.obj
 0003:00004e2c       ?iv2@?1??f_RigidBody_RigidBody@@9@9 0000000180039e2c     m_nM5NMYJUCkhQa81HtyaWRC.obj
 0003:00004e30       ?b_u@?1??mw__internal__call__reset@@9@9 0000000180039e30     m_nM5NMYJUCkhQa81HtyaWRC.obj
 0003:00004e60       ?d_u@?1??mw__internal__call__reset@@9@9 0000000180039e60     m_nM5NMYJUCkhQa81HtyaWRC.obj
 0003:00004e68       ?f_u@?1??mw__internal__call__step@@9@9 0000000180039e68     m_nM5NMYJUCkhQa81HtyaWRC.obj
 0003:00004e98       ?b_u@?1??mw__internal__call__step@@9@9 0000000180039e98     m_nM5NMYJUCkhQa81HtyaWRC.obj
 0003:00004ec8       ?b_a@?1??mw__internal__call__step@@9@9 0000000180039ec8     m_nM5NMYJUCkhQa81HtyaWRC.obj
 0003:00004ed0       ?cv@?1??mw__internal__call__step@@9@9 0000000180039ed0     m_nM5NMYJUCkhQa81HtyaWRC.obj
 0003:00004ed8       ?d_u@?1??mw__internal__call__step@@9@9 0000000180039ed8     m_nM5NMYJUCkhQa81HtyaWRC.obj
 0003:00004edc       ?iv5@?1??mw__internal__call__step@@9@9 0000000180039edc     m_nM5NMYJUCkhQa81HtyaWRC.obj
 0003:00004ee0       ?j_u@?1??RigidBodyTree_forwardKinematics@@9@9 0000000180039ee0     m_nM5NMYJUCkhQa81HtyaWRC.obj
 0003:00004f10       ?h_u@?1??RigidBodyTree_forwardKinematics@@9@9 0000000180039f10     m_nM5NMYJUCkhQa81HtyaWRC.obj
 0003:00004f38       ?b_u@?1??RigidBodyTree_forwardKinematics@@9@9 0000000180039f38     m_nM5NMYJUCkhQa81HtyaWRC.obj
 0003:00004f58       ?d_u@?1??RigidBodyTree_forwardKinematics@@9@9 0000000180039f58     m_nM5NMYJUCkhQa81HtyaWRC.obj
 0003:00004f70       ?i_u@?1??RigidBodyTree_forwardKinematics@@9@9 0000000180039f70     m_nM5NMYJUCkhQa81HtyaWRC.obj
 0003:00004f80       ?iv@?1??RigidBodyTree_forwardKinematics@@9@9 0000000180039f80     m_nM5NMYJUCkhQa81HtyaWRC.obj
 0003:00004f90       ?iv9@?1??RigidBodyTree_forwardKinematics@@9@9 0000000180039f90     m_nM5NMYJUCkhQa81HtyaWRC.obj
 0003:00004f94       ?cv@?1??d_strcmp@@9@9      0000000180039f94     m_nM5NMYJUCkhQa81HtyaWRC.obj
 0003:00004fa0       ?d_u@?1??axang2tform@@9@9  0000000180039fa0     m_nM5NMYJUCkhQa81HtyaWRC.obj
 0003:00004fd0       ?b_u@?1??axang2tform@@9@9  0000000180039fd0     m_nM5NMYJUCkhQa81HtyaWRC.obj
 0003:00004ff8       ?g_u@?1??axang2tform@@9@9  0000000180039ff8     m_nM5NMYJUCkhQa81HtyaWRC.obj
 0003:00005018       ?h_u@?1??axang2tform@@9@9  000000018003a018     m_nM5NMYJUCkhQa81HtyaWRC.obj
 0003:00005020       ?j_u@?1??axang2tform@@9@9  000000018003a020     m_nM5NMYJUCkhQa81HtyaWRC.obj
 0003:00005024       ?cv@?1??e_strcmp@@9@9      000000018003a024     m_nM5NMYJUCkhQa81HtyaWRC.obj
 0003:00005030       ?b_u@?1??RigidBody_get_Joint@@9@9 000000018003a030     m_nM5NMYJUCkhQa81HtyaWRC.obj
 0003:00005064       ?d_u@?1??RigidBody_get_Joint@@9@9 000000018003a064     m_nM5NMYJUCkhQa81HtyaWRC.obj
 0003:00005070       $SG22607                   000000018003a070     m_nM5NMYJUCkhQa81HtyaWRC.obj
 0003:00005078       $SG22615                   000000018003a078     m_nM5NMYJUCkhQa81HtyaWRC.obj
 0003:00005084       $SG22624                   000000018003a084     m_nM5NMYJUCkhQa81HtyaWRC.obj
 0003:00005090       $SG22632                   000000018003a090     m_nM5NMYJUCkhQa81HtyaWRC.obj
 0003:00005098       $SG22642                   000000018003a098     m_nM5NMYJUCkhQa81HtyaWRC.obj
 0003:000050a0       ?b_u@?1??RigidBodyTree_validateConfiguration@@9@9 000000018003a0a0     m_nM5NMYJUCkhQa81HtyaWRC.obj
 0003:000050d8       ?e_u@?1??RigidBodyTree_validateConfiguration@@9@9 000000018003a0d8     m_nM5NMYJUCkhQa81HtyaWRC.obj
 0003:00005110       ?l_u@?1??RigidBodyTree_validateConfiguration@@9@9 000000018003a110     m_nM5NMYJUCkhQa81HtyaWRC.obj
 0003:00005148       ?d_u@?1??RigidBodyTree_validateConfiguration@@9@9 000000018003a148     m_nM5NMYJUCkhQa81HtyaWRC.obj
 0003:00005178       ?j_u@?1??RigidBodyTree_validateConfiguration@@9@9 000000018003a178     m_nM5NMYJUCkhQa81HtyaWRC.obj
 0003:000051a8       ?n_u@?1??RigidBodyTree_validateConfiguration@@9@9 000000018003a1a8     m_nM5NMYJUCkhQa81HtyaWRC.obj
 0003:000051d8       ?h_u@?1??RigidBodyTree_validateConfiguration@@9@9 000000018003a1d8     m_nM5NMYJUCkhQa81HtyaWRC.obj
 0003:00005200       ?i_u@?1??RigidBodyTree_validateConfiguration@@9@9 000000018003a200     m_nM5NMYJUCkhQa81HtyaWRC.obj
 0003:00005220       $SG23101                   000000018003a220     m_nM5NMYJUCkhQa81HtyaWRC.obj
 0003:00005230       $SG23102                   000000018003a230     m_nM5NMYJUCkhQa81HtyaWRC.obj
 0003:00005238       $SG23103                   000000018003a238     m_nM5NMYJUCkhQa81HtyaWRC.obj
 0003:00005258       $SG23108                   000000018003a258     m_nM5NMYJUCkhQa81HtyaWRC.obj
 0003:00005290       $SG23109                   000000018003a290     m_nM5NMYJUCkhQa81HtyaWRC.obj
 0003:000052b0       $SG23118                   000000018003a2b0     m_nM5NMYJUCkhQa81HtyaWRC.obj
 0003:000052c0       $SG23120                   000000018003a2c0     m_nM5NMYJUCkhQa81HtyaWRC.obj
 0003:000052d8       $SG23121                   000000018003a2d8     m_nM5NMYJUCkhQa81HtyaWRC.obj
 0003:000052e8       $SG23122                   000000018003a2e8     m_nM5NMYJUCkhQa81HtyaWRC.obj
 0003:00005328       $SG18491                   000000018003a328     SCARA_Control_System_cgxe_registry.obj
 0003:00005358       $SG18495                   000000018003a358     SCARA_Control_System_cgxe_registry.obj
 0003:00005398       $SG18500                   000000018003a398     SCARA_Control_System_cgxe_registry.obj
 0003:000053d0       $SG18505                   000000018003a3d0     SCARA_Control_System_cgxe_registry.obj
 0003:00005408       $SG18509                   000000018003a408     SCARA_Control_System_cgxe_registry.obj
 0003:00005440       $SG18546                   000000018003a440     SCARA_Control_System_cgxe_registry.obj
 0003:00005448       $SG18548                   000000018003a448     SCARA_Control_System_cgxe_registry.obj
 0003:00005450       $SG18550                   000000018003a450     SCARA_Control_System_cgxe_registry.obj
 0003:0000545c       $SG18552                   000000018003a45c     SCARA_Control_System_cgxe_registry.obj
 0003:00005468       $SG18554                   000000018003a468     SCARA_Control_System_cgxe_registry.obj
 0003:00005470       $SG18555                   000000018003a470     SCARA_Control_System_cgxe_registry.obj
 0003:00005478       $SG18556                   000000018003a478     SCARA_Control_System_cgxe_registry.obj
 0003:00005480       $SG18557                   000000018003a480     SCARA_Control_System_cgxe_registry.obj
 0003:0000548c       $SG18558                   000000018003a48c     SCARA_Control_System_cgxe_registry.obj
 0003:00005498       $SG18559                   000000018003a498     SCARA_Control_System_cgxe_registry.obj
 0003:000054a0       $SG18595                   000000018003a4a0     SCARA_Control_System_cgxe_registry.obj
 0003:000054d0       $SG18606                   000000018003a4d0     SCARA_Control_System_cgxe_registry.obj
 0003:00005500       $SG18620                   000000018003a500     SCARA_Control_System_cgxe_registry.obj
 0003:00005518       $SG18634                   000000018003a518     SCARA_Control_System_cgxe_registry.obj
 0003:00005530       $SG18648                   000000018003a530     SCARA_Control_System_cgxe_registry.obj
 0003:00005540       $SG18650                   000000018003a540     SCARA_Control_System_cgxe_registry.obj
 0003:00005550       $SG18652                   000000018003a550     SCARA_Control_System_cgxe_registry.obj
 0003:00005560       $SG18654                   000000018003a560     SCARA_Control_System_cgxe_registry.obj
 0003:00005570       $SG18656                   000000018003a570     SCARA_Control_System_cgxe_registry.obj
 0003:00005588       $SG18658                   000000018003a588     SCARA_Control_System_cgxe_registry.obj
 0003:000055a0       $SG18669                   000000018003a5a0     SCARA_Control_System_cgxe_registry.obj
 0003:000055c8       _sfcnName                  000000018003a5c8     SCARA_Control_System_cgxe_registry.obj
 0003:00005600       $SG18684                   000000018003a600     SCARA_Control_System_cgxe_registry.obj
 0003:00005680       $SG18688                   000000018003a680     SCARA_Control_System_cgxe_registry.obj
 0003:000056f8       $SG18993                   000000018003a6f8     SCARA_Control_System_cgxe_registry.obj
 0003:00005718       $SG18994                   000000018003a718     SCARA_Control_System_cgxe_registry.obj
 0003:00005738       $SG19006                   000000018003a738     SCARA_Control_System_cgxe_registry.obj
 0003:00005748       $SG19142                   000000018003a748     SCARA_Control_System_cgxe_registry.obj
 0003:00005788       $SG19143                   000000018003a788     SCARA_Control_System_cgxe_registry.obj
 0003:00005798       $SG19144                   000000018003a798     SCARA_Control_System_cgxe_registry.obj
 0003:000057a0       $SG19148                   000000018003a7a0     SCARA_Control_System_cgxe_registry.obj
 0003:000057e8       $SG19149                   000000018003a7e8     SCARA_Control_System_cgxe_registry.obj
 0003:000057f8       $SG19150                   000000018003a7f8     SCARA_Control_System_cgxe_registry.obj
 0003:00005800       $SG19151                   000000018003a800     SCARA_Control_System_cgxe_registry.obj
 0003:00005858       $SG19152                   000000018003a858     SCARA_Control_System_cgxe_registry.obj
 0003:00005868       $SG19153                   000000018003a868     SCARA_Control_System_cgxe_registry.obj
 0003:00005870       $SG19173                   000000018003a870     SCARA_Control_System_cgxe_registry.obj
 0003:000058b0       $SG19174                   000000018003a8b0     SCARA_Control_System_cgxe_registry.obj
 0003:000058c0       $SG19175                   000000018003a8c0     SCARA_Control_System_cgxe_registry.obj
 0003:000058d0       $SG19179                   000000018003a8d0     SCARA_Control_System_cgxe_registry.obj
 0003:00005918       $SG19180                   000000018003a918     SCARA_Control_System_cgxe_registry.obj
 0003:00005928       $SG19181                   000000018003a928     SCARA_Control_System_cgxe_registry.obj
 0003:00005930       $SG19182                   000000018003a930     SCARA_Control_System_cgxe_registry.obj
 0003:00005988       $SG19183                   000000018003a988     SCARA_Control_System_cgxe_registry.obj
 0003:00005998       $SG19184                   000000018003a998     SCARA_Control_System_cgxe_registry.obj
 0003:000059a0       $SG19203                   000000018003a9a0     SCARA_Control_System_cgxe_registry.obj
 0003:000059f0       $SG19204                   000000018003a9f0     SCARA_Control_System_cgxe_registry.obj
 0003:00005a00       $SG19205                   000000018003aa00     SCARA_Control_System_cgxe_registry.obj
 0003:00005a10       $SG19214                   000000018003aa10     SCARA_Control_System_cgxe_registry.obj
 0003:00005a70       $SG19215                   000000018003aa70     SCARA_Control_System_cgxe_registry.obj
 0003:00005a78       $SG19216                   000000018003aa78     SCARA_Control_System_cgxe_registry.obj
 0003:00005a80       $SG19225                   000000018003aa80     SCARA_Control_System_cgxe_registry.obj
 0003:00005ae0       $SG19226                   000000018003aae0     SCARA_Control_System_cgxe_registry.obj
 0003:00005ae8       $SG19227                   000000018003aae8     SCARA_Control_System_cgxe_registry.obj
 0003:00005af0       $SG19533                   000000018003aaf0     SCARA_Control_System_cgxe_registry.obj
 0003:00005b70       $SG19536                   000000018003ab70     SCARA_Control_System_cgxe_registry.obj
 0003:00005bf0       $SG19541                   000000018003abf0     SCARA_Control_System_cgxe_registry.obj
 0003:00005c70       $SG19549                   000000018003ac70     SCARA_Control_System_cgxe_registry.obj
 0003:00005ce0       $SG19822                   000000018003ace0     SCARA_Control_System_cgxe_registry.obj
 0003:00005d60       $SG19827                   000000018003ad60     SCARA_Control_System_cgxe_registry.obj
 0003:00005dd8       $SG20151                   000000018003add8     SCARA_Control_System_cgxe_registry.obj
 0003:00005df0       $SG20164                   000000018003adf0     SCARA_Control_System_cgxe_registry.obj
 0003:00005e68       $SG20167                   000000018003ae68     SCARA_Control_System_cgxe_registry.obj
 0003:00005e6c       $SG20219                   000000018003ae6c     SCARA_Control_System_cgxe_registry.obj
 0003:00005e74       $SG20220                   000000018003ae74     SCARA_Control_System_cgxe_registry.obj
 0003:00005e7c       $SG20221                   000000018003ae7c     SCARA_Control_System_cgxe_registry.obj
 0003:00005e90       $SG20222                   000000018003ae90     SCARA_Control_System_cgxe_registry.obj
 0003:00005f10       $SG20224                   000000018003af10     SCARA_Control_System_cgxe_registry.obj
 0003:00005f8c       $SG20227                   000000018003af8c     SCARA_Control_System_cgxe_registry.obj
 0003:00005f94       $SG20230                   000000018003af94     SCARA_Control_System_cgxe_registry.obj
 0003:00005f9c       $SG20233                   000000018003af9c     SCARA_Control_System_cgxe_registry.obj
 0003:00005fb0       $SG20234                   000000018003afb0     SCARA_Control_System_cgxe_registry.obj
 0003:00006030       $SG20235                   000000018003b030     SCARA_Control_System_cgxe_registry.obj
 0003:00006040       $SG20237                   000000018003b040     SCARA_Control_System_cgxe_registry.obj
 0003:0000604c       $SG20239                   000000018003b04c     SCARA_Control_System_cgxe_registry.obj
 0003:00006054       $SG20241                   000000018003b054     SCARA_Control_System_cgxe_registry.obj
 0003:00006060       $SG20243                   000000018003b060     SCARA_Control_System_cgxe_registry.obj
 0003:0000606c       $SG20245                   000000018003b06c     SCARA_Control_System_cgxe_registry.obj
 0003:00006070       $SG20248                   000000018003b070     SCARA_Control_System_cgxe_registry.obj
 0003:00006158       $SG20358                   000000018003b158     SCARA_Control_System_cgxe_registry.obj
 0003:00006188       $SG20359                   000000018003b188     SCARA_Control_System_cgxe_registry.obj
 0003:00006198       $SG20360                   000000018003b198     SCARA_Control_System_cgxe_registry.obj
 0003:000061a0       $SG20362                   000000018003b1a0     SCARA_Control_System_cgxe_registry.obj
 0003:000061d8       $SG20363                   000000018003b1d8     SCARA_Control_System_cgxe_registry.obj
 0003:000061e8       $SG20364                   000000018003b1e8     SCARA_Control_System_cgxe_registry.obj
 0003:000061f0       $SG20367                   000000018003b1f0     SCARA_Control_System_cgxe_registry.obj
 0003:00006228       $SG20368                   000000018003b228     SCARA_Control_System_cgxe_registry.obj
 0003:00006238       $SG20369                   000000018003b238     SCARA_Control_System_cgxe_registry.obj
 0003:00006240       $SG20371                   000000018003b240     SCARA_Control_System_cgxe_registry.obj
 0003:00006278       $SG20372                   000000018003b278     SCARA_Control_System_cgxe_registry.obj
 0003:00006288       $SG20373                   000000018003b288     SCARA_Control_System_cgxe_registry.obj
 0003:00006290       $SG20375                   000000018003b290     SCARA_Control_System_cgxe_registry.obj
 0003:000062c8       $SG20376                   000000018003b2c8     SCARA_Control_System_cgxe_registry.obj
 0003:000062d8       $SG20377                   000000018003b2d8     SCARA_Control_System_cgxe_registry.obj
 0003:000062e0       $SG20380                   000000018003b2e0     SCARA_Control_System_cgxe_registry.obj
 0003:00006300       $SG20382                   000000018003b300     SCARA_Control_System_cgxe_registry.obj
 0003:00006318       $SG20383                   000000018003b318     SCARA_Control_System_cgxe_registry.obj
 0003:00006350       $SG20384                   000000018003b350     SCARA_Control_System_cgxe_registry.obj
 0003:00006360       $SG20385                   000000018003b360     SCARA_Control_System_cgxe_registry.obj
 0003:00006368       $SG20516                   000000018003b368     SCARA_Control_System_cgxe_registry.obj
 0003:00006390       $SG20517                   000000018003b390     SCARA_Control_System_cgxe_registry.obj
 0003:00006420       $SG20523                   000000018003b420     SCARA_Control_System_cgxe_registry.obj
 0003:00006440       $SG20524                   000000018003b440     SCARA_Control_System_cgxe_registry.obj
 0003:000064d0       $SG20530                   000000018003b4d0     SCARA_Control_System_cgxe_registry.obj
 0003:000064f0       $SG20531                   000000018003b4f0     SCARA_Control_System_cgxe_registry.obj
 0003:00006580       $SG20537                   000000018003b580     SCARA_Control_System_cgxe_registry.obj
 0003:000065a0       $SG20538                   000000018003b5a0     SCARA_Control_System_cgxe_registry.obj
 0003:00006630       $SG20544                   000000018003b630     SCARA_Control_System_cgxe_registry.obj
 0003:00006650       $SG20545                   000000018003b650     SCARA_Control_System_cgxe_registry.obj
 0003:000066e0       $SG20549                   000000018003b6e0     SCARA_Control_System_cgxe_registry.obj
 0003:00006700       $SG20550                   000000018003b700     SCARA_Control_System_cgxe_registry.obj
 0003:00006790       $SG20554                   000000018003b790     SCARA_Control_System_cgxe_registry.obj
 0003:000067c0       $SG20555                   000000018003b7c0     SCARA_Control_System_cgxe_registry.obj
 0003:00006850       $SG20559                   000000018003b850     SCARA_Control_System_cgxe_registry.obj
 0003:00006880       $SG20560                   000000018003b880     SCARA_Control_System_cgxe_registry.obj
 0003:00006910       $SG20564                   000000018003b910     SCARA_Control_System_cgxe_registry.obj
 0003:00006930       $SG20565                   000000018003b930     SCARA_Control_System_cgxe_registry.obj
 0003:000069c0       $SG20569                   000000018003b9c0     SCARA_Control_System_cgxe_registry.obj
 0003:000069e0       $SG20570                   000000018003b9e0     SCARA_Control_System_cgxe_registry.obj
 0003:00006a70       $SG20574                   000000018003ba70     SCARA_Control_System_cgxe_registry.obj
 0003:00006a90       $SG20575                   000000018003ba90     SCARA_Control_System_cgxe_registry.obj
 0003:00006b20       $SG20579                   000000018003bb20     SCARA_Control_System_cgxe_registry.obj
 0003:00006b40       $SG20580                   000000018003bb40     SCARA_Control_System_cgxe_registry.obj
 0003:00006bd0       $SG20584                   000000018003bbd0     SCARA_Control_System_cgxe_registry.obj
 0003:00006bf0       $SG20585                   000000018003bbf0     SCARA_Control_System_cgxe_registry.obj
 0003:00006c80       $SG20589                   000000018003bc80     SCARA_Control_System_cgxe_registry.obj
 0003:00006ca0       $SG20590                   000000018003bca0     SCARA_Control_System_cgxe_registry.obj
 0003:00006d30       $SG20594                   000000018003bd30     SCARA_Control_System_cgxe_registry.obj
 0003:00006d50       $SG20595                   000000018003bd50     SCARA_Control_System_cgxe_registry.obj
 0003:00006de0       $SG20599                   000000018003bde0     SCARA_Control_System_cgxe_registry.obj
 0003:00006e00       $SG20600                   000000018003be00     SCARA_Control_System_cgxe_registry.obj
 0003:00006e90       $SG20604                   000000018003be90     SCARA_Control_System_cgxe_registry.obj
 0003:00006eb0       $SG20605                   000000018003beb0     SCARA_Control_System_cgxe_registry.obj
 0003:00006f40       $SG20610                   000000018003bf40     SCARA_Control_System_cgxe_registry.obj
 0003:00006f60       $SG20611                   000000018003bf60     SCARA_Control_System_cgxe_registry.obj
 0003:00006ff0       $SG20616                   000000018003bff0     SCARA_Control_System_cgxe_registry.obj
 0003:00007010       $SG20617                   000000018003c010     SCARA_Control_System_cgxe_registry.obj
 0003:000070a0       $SG20621                   000000018003c0a0     SCARA_Control_System_cgxe_registry.obj
 0003:000070b0       $SG20622                   000000018003c0b0     SCARA_Control_System_cgxe_registry.obj
 0003:00007140       $SG20626                   000000018003c140     SCARA_Control_System_cgxe_registry.obj
 0003:00007160       $SG20627                   000000018003c160     SCARA_Control_System_cgxe_registry.obj
 0003:000071f0       $SG20635                   000000018003c1f0     SCARA_Control_System_cgxe_registry.obj
 0003:00007200       $SG20636                   000000018003c200     SCARA_Control_System_cgxe_registry.obj
 0003:00007290       $SG20640                   000000018003c290     SCARA_Control_System_cgxe_registry.obj
 0003:00007310       $SG20642                   000000018003c310     SCARA_Control_System_cgxe_registry.obj
 0003:00007390       $SG20646                   000000018003c390     SCARA_Control_System_cgxe_registry.obj
 0003:00007410       $SG20669                   000000018003c410     SCARA_Control_System_cgxe_registry.obj
 0003:00007528       $SG20677                   000000018003c528     SCARA_Control_System_cgxe_registry.obj
 0003:00007538       $SG20684                   000000018003c538     SCARA_Control_System_cgxe_registry.obj
 0003:00007548       $SG20692                   000000018003c548     SCARA_Control_System_cgxe_registry.obj
 0003:00007558       $SG20699                   000000018003c558     SCARA_Control_System_cgxe_registry.obj
 0003:00007568       $SG20707                   000000018003c568     SCARA_Control_System_cgxe_registry.obj
 0003:00007578       $SG20714                   000000018003c578     SCARA_Control_System_cgxe_registry.obj
 0003:00007588       $SG20720                   000000018003c588     SCARA_Control_System_cgxe_registry.obj
 0003:000075a8       $SG20730                   000000018003c5a8     SCARA_Control_System_cgxe_registry.obj
 0003:000075d8       $SG20731                   000000018003c5d8     SCARA_Control_System_cgxe_registry.obj
 0003:000075e0       $SG20732                   000000018003c5e0     SCARA_Control_System_cgxe_registry.obj
 0003:000075e8       $SG20742                   000000018003c5e8     SCARA_Control_System_cgxe_registry.obj
 0003:00007620       $SG20743                   000000018003c620     SCARA_Control_System_cgxe_registry.obj
 0003:00007628       $SG20744                   000000018003c628     SCARA_Control_System_cgxe_registry.obj
 0003:00007630       $SG12161                   000000018003c630     ccd_polytope.obj
 0003:00007634       $SG12209                   000000018003c634     ccd_polytope.obj
 0003:00007640       $SG12210                   000000018003c640     ccd_polytope.obj
 0003:00007650       $SG12211                   000000018003c650     ccd_polytope.obj
 0003:00007660       $SG12212                   000000018003c660     ccd_polytope.obj
 0003:00007668       $SG12213                   000000018003c668     ccd_polytope.obj
 0003:00007670       $SG12214                   000000018003c670     ccd_polytope.obj
 0003:00007678       $SG12217                   000000018003c678     ccd_polytope.obj
 0003:000076b0       points_on_sphere           000000018003c6b0     ccd_vec3.obj
 0003:00007bb0       $SG20271                   000000018003cbb0     m_nM5NMYJUCkhQa81HtyaWRC.obj
 0003:00007bb1       $SG20272                   000000018003cbb1     m_nM5NMYJUCkhQa81HtyaWRC.obj
 0003:00007bb2       $SG20274                   000000018003cbb2     m_nM5NMYJUCkhQa81HtyaWRC.obj
 0003:00007bb3       $SG20275                   000000018003cbb3     m_nM5NMYJUCkhQa81HtyaWRC.obj
 0003:00007bb4       $SG20328                   000000018003cbb4     m_nM5NMYJUCkhQa81HtyaWRC.obj
 0003:00007bb5       $SG20329                   000000018003cbb5     m_nM5NMYJUCkhQa81HtyaWRC.obj
 0003:00007bb6       $SG20331                   000000018003cbb6     m_nM5NMYJUCkhQa81HtyaWRC.obj
 0003:00007bb7       $SG20332                   000000018003cbb7     m_nM5NMYJUCkhQa81HtyaWRC.obj
 0003:00007bb8       $SG20481                   000000018003cbb8     m_nM5NMYJUCkhQa81HtyaWRC.obj
 0003:00007bb9       $SG20497                   000000018003cbb9     m_nM5NMYJUCkhQa81HtyaWRC.obj
 0003:00007bba       $SG20504                   000000018003cbba     m_nM5NMYJUCkhQa81HtyaWRC.obj
 0003:00007bbb       $SG20511                   000000018003cbbb     m_nM5NMYJUCkhQa81HtyaWRC.obj
 0003:00007bbc       $SG20518                   000000018003cbbc     m_nM5NMYJUCkhQa81HtyaWRC.obj
 0003:00007bbd       $SG20540                   000000018003cbbd     m_nM5NMYJUCkhQa81HtyaWRC.obj
 0003:00007bbe       $SG20544                   000000018003cbbe     m_nM5NMYJUCkhQa81HtyaWRC.obj
 0003:00007bbf       $SG20548                   000000018003cbbf     m_nM5NMYJUCkhQa81HtyaWRC.obj
 0003:00007bc0       $SG20552                   000000018003cbc0     m_nM5NMYJUCkhQa81HtyaWRC.obj
 0003:00007bc1       $SG20559                   000000018003cbc1     m_nM5NMYJUCkhQa81HtyaWRC.obj
 0003:00007bc2       $SG20563                   000000018003cbc2     m_nM5NMYJUCkhQa81HtyaWRC.obj
 0003:00007bc3       $SG20573                   000000018003cbc3     m_nM5NMYJUCkhQa81HtyaWRC.obj
 0003:00007bc4       $SG20577                   000000018003cbc4     m_nM5NMYJUCkhQa81HtyaWRC.obj
 0003:00007bc5       $SG20584                   000000018003cbc5     m_nM5NMYJUCkhQa81HtyaWRC.obj
 0003:00007bc6       $SG20594                   000000018003cbc6     m_nM5NMYJUCkhQa81HtyaWRC.obj
 0003:00007bc7       $SG20598                   000000018003cbc7     m_nM5NMYJUCkhQa81HtyaWRC.obj
 0003:00007bc8       $SG20602                   000000018003cbc8     m_nM5NMYJUCkhQa81HtyaWRC.obj
 0003:00007bc9       $SG20609                   000000018003cbc9     m_nM5NMYJUCkhQa81HtyaWRC.obj
 0003:00007bca       $SG20613                   000000018003cbca     m_nM5NMYJUCkhQa81HtyaWRC.obj
 0003:00007bcb       $SG20620                   000000018003cbcb     m_nM5NMYJUCkhQa81HtyaWRC.obj
 0003:00007bcc       $SG20624                   000000018003cbcc     m_nM5NMYJUCkhQa81HtyaWRC.obj
 0003:00007bcd       $SG23104                   000000018003cbcd     m_nM5NMYJUCkhQa81HtyaWRC.obj
 0003:00007bce       $SG23105                   000000018003cbce     m_nM5NMYJUCkhQa81HtyaWRC.obj
 0003:00007bcf       $SG23106                   000000018003cbcf     m_nM5NMYJUCkhQa81HtyaWRC.obj
 0003:00007bd0       $SG23107                   000000018003cbd0     m_nM5NMYJUCkhQa81HtyaWRC.obj
 0003:00007bd4       $SG20215                   000000018003cbd4     SCARA_Control_System_cgxe_registry.obj
 0003:00007bd6       ?warningGuard@?1??ssGetRootSS@@9@9 000000018003cbd6     SCARA_Control_System_cgxe_registry.obj
 0003:00007bd7       ?warningGuard@?1??ssGetParentSS@@9@9 000000018003cbd7     SCARA_Control_System_cgxe_registry.obj
 0003:00007bd8       __ccd_vec3_origin          000000018003cbd8     ccd_vec3.obj
 0003:00007bf0       GS_ExceptionRecord         000000018003cbf0     MSVCRT:gs_report.obj
 0003:00007c90       GS_ContextRecord           000000018003cc90     MSVCRT:gs_report.obj
 0003:00008160       ?__proc_attached@@3HA      000000018003d160     MSVCRT:dll_dllmain.obj
 0003:000081a0       ?is_initialized_as_dll@@3_NA 000000018003d1a0     MSVCRT:utility.obj
 0003:000081a1       ?module_local_atexit_table_initialized@@3_NA 000000018003d1a1     MSVCRT:utility.obj
 0003:000081a8       ?module_local_atexit_table@@3U_onexit_table_t@@A 000000018003d1a8     MSVCRT:utility.obj
 0003:000081c0       ?module_local_at_quick_exit_table@@3U_onexit_table_t@@A 000000018003d1c0     MSVCRT:utility.obj
